(dp1
S'id'
p2
(dp3
S'sortable'
p4
I1
sS'sql'
p5
S'SERIAL PRIMARY KEY'
p6
sS'length'
p7
I512
sS'notnull'
p8
I00
sS'unique'
p9
I00
sS'type'
p10
S'id'
p11
ssS'nome'
p12
(dp13
g4
I2
sg5
S'VARCHAR(512)'
p14
sg7
I512
sg8
I00
sg9
I00
sg10
S'string'
p15
ss.