(dp1
S'output'
p2
S"<type 'exceptions.AttributeError'> 'function' object has no attribute 'replace'"
p3
sS'layer'
p4
S'/home/fernado/web2py/tronco/applications/ubercred/controllers/initial.py'
p5
sS'code'
p6
S'# coding=UTF-8\nimport  json\nfrom datetime import datetime\nfrom pprint import pprint\n\n\n@auth.requires_login()\ndef principal():\n\tfunc \t= session.auth.user.funcao\n\tid_user = session.auth.user.id\n\tif func == "supervisor":\n\t\tauth.add_membership(1, id_user)\n\t\tredirect(URL(emprestimo))\n\tif func == "agente":\n\t\tauth.add_membership(2, id_user)\n\t\tredirect(URL(form_emprestimo))\n\tif func == "admin":\n\t\tprint \'aa\'\n\t\tauth.add_membership(3, id_user)\n\t\tredirect(URL(emprestimo))\n\t\n\treturn response.render("initial/principal.html", teste=teste)\n\ndef cpf_json():\n\tif request.vars.func == "pend":\n\t\tquery = (db.emprestimo.id_empresa == db.empresa.id) \\\n\t\t& (db.emprestimo.estado == None) & (db.emprestimo.telefone == "")\n\n\tif request.vars.func == "total":\n\t\tquery = (db.emprestimo.id_empresa == db.empresa.id)\n\n\tcpf = db(query).select(db.emprestimo.cpf)\n\tlista = []\n\tfor dado in cpf:\n\t\tlista.append(dado.cpf)\n\tlista = list(set(lista))\n\n\treturn response.json(lista)\n\ndef estados_json():\n\tprint request.vars\n\twith open(\'%s/applications/ubercred/views/estados.json\' %(session.raiz)) as json_data:\n\t\tjson_data = json.load(json_data)\n\t\t#print json_data[0]\n\t\t#for dado in json_data:\n\t\t##\tprint dado\n\n\treturn response.json(json_data)\n\t#return response.render("estados.json")\n\ndef cidades_json():\n\tprint request.vars\n\twith open(\'%s/applications/ubercred/views/cidades.json\' %(session.raiz)) as json_data:\n\t\tjson_data = json.load(json_data)\n\t\tprint(json_data)\n\n\treturn response.json(json_data)\t\n\t#return response.render("cidades.json")\n\ndef user():\n\tprint request.args(0)\n\tif request.args(0) == \'login\':\n\t\t\treturn response.render("login/user.html", \n\t\t\t\t\t\t\t\t\t\tuser=auth())\n\n\tif request.args(0) == \'register\':\n\t\treturn response.render("login/user.html", \n\t\t\t\t\t\t\tuser=auth.register())\n\n\tif request.args(0) == \'not_authorized\':\n\t\tprint \'nao\'\n\n\tif request.args(0) == \'profile\':\n\t\treturn response.render("login/user.html", \n\t\t\t\t\t\t\tuser=auth.profile())\n\n\treturn response.render("login/user.html", user=auth())\n\n##---------------------------Emepresa\n@auth.requires_membership(\'admin\')\ndef form_empresa():\n\tresponse.title = \'Empresa\'\n\tid_edit\t= request.vars[\'id_edit\']\n\n\tif id_edit is None:\n\t\tform \t= SQLFORM(db.empresa)\n\telse:\n\t\tform \t= SQLFORM(db.empresa, id_edit)\n\n\tif form.process().accepted:\n\t\tredirect(URL("empresa"))\n\n\treturn response.render("initial/show_form.html", form=form)\n\n@auth.requires_membership(\'admin\')\ndef empresa():\n\tprint session\n\tresponse.title = \'empresa\'\n\tempresa =\tdb(db.empresa).select(orderby=db.empresa.id)\n\n\treturn response.render("initial/list_empresa.html", \n\t\tempresa=empresa)\n\n##---------------------------Status\n@auth.requires_membership(\'admin\')\ndef form_status():\n\tresponse.title = "Status"\n\tid_edit = request.vars[\'id_edit\']\n\n\tif id_edit is None:\n\t\tform \t= SQLFORM(db.status)\n\telse:\n\t\tform \t= SQLFORM(db.status, id_edit)\n\n\tif form.process().accepted:\n\t\tredirect(URL("status"))\n\n\treturn response.render("initial/show_form.html", form=form)\t\n\n@auth.requires_membership(\'admin\')\ndef status():\n\tresponse.title = \'status\'\n\tstatus \t=\tdb(db.status).select(orderby=db.status.id)\n\n\treturn response.render("initial/list_status.html", \n\t\tstatus=status)\n\n##---------------------------Funcao\n@auth.requires_membership(\'admin\')\ndef form_funcao():\n\tresponse.title = \'fun\xc3\xa7\xc3\xa3o\'\n\tid_edit\t= request.vars[\'id_edit\']\n\n\tif id_edit is None:\n\t\tform \t= SQLFORM(db.funcao)\n\telse:\n\t\tform \t= SQLFORM(db.funcao, id_edit)\n\n\tif form.process().accepted:\n\t\tredirect(URL("funcao"))\n\n\treturn response.render("initial/show_form.html", form=form)\n\n@auth.requires_membership(\'admin\')\ndef funcao():\n\t#print session\n\tresponse.title = \'fun\xc3\xa7\xc3\xa3o\'\n\tfuncao =\tdb(db.funcao).select(orderby=db.funcao.id)\n\n\treturn response.render("initial/list_funcao.html", \n\t\tfuncao=funcao)\n\n##---------------------------Banco\n@auth.requires_membership(\'admin\')\ndef form_banco():\n\tresponse.title = \'banco\'\n\tid_edit\t= request.vars[\'id_edit\']\n\n\tif id_edit is None:\n\t\tform \t= SQLFORM(db.banco)\n\telse:\n\t\tform \t= SQLFORM(db.banco, id_edit)\n\n\tif form.process().accepted:\n\t\tredirect(URL("banco"))\n\n\treturn response.render("initial/show_form.html", form=form)\n\n@auth.requires_membership(\'admin\')\ndef banco():\n\t#print session\n\tresponse.title = \'banco\'\n\tbanco =\tdb(db.banco).select(orderby=db.banco.id)\n\n\treturn response.render("initial/list_banco.html", \n\t\tbanco=banco)\n\n##---------------------------Orgao\n@auth.requires_membership(\'admin\')\ndef form_orgao():\n\tresponse.title = \'org\xc3\xa3o\'\n\tid_edit\t= request.vars[\'id_edit\']\n\n\tif id_edit is None:\n\t\tform \t= SQLFORM(db.orgao)\n\telse:\n\t\tform \t= SQLFORM(db.orgao, id_edit)\n\n\tif form.process().accepted:\n\t\tredirect(URL("orgao"))\n\n\treturn response.render("initial/show_form.html", form=form)\n\n@auth.requires_membership(\'admin\')\ndef orgao():\n\t#print session\n\tresponse.title = \'org\xc3\xa3o\'\n\torgao =\tdb(db.orgao).select(orderby=db.orgao.id)\n\n\treturn response.render("initial/list_orgao.html", \n\t\torgao=orgao)\n\n\n##---------------------------Emprestimo\n@auth.requires_login()\ndef form_emprestimo():\n\tid_edit = request.vars[\'id_edit\']\n\tprint id_edit\n\tprint session.auth.user\n\tfuncao = session.auth.user.funcao\n\tif funcao == "agente":\n\t\tredirect(URL(form_emprestimo_agt))\n\tif funcao == "supervisor":\n\t\tif id_edit != None:\n\t\t\tredirect(URL("initial",\n\t\t"form_emprestimo_spv?id_edit="+id_edit))\n\t\telse:\n\t\t\tredirect(URL(form_emprestimo_spv))\n\tif funcao == "admin":\n\t\tif id_edit != None:\n\t\t\tredirect(URL("initial",\n\t\t"form_emprestimo_spv?id_edit="+id_edit))\n\t\telse:\n\t\t\tredirect(URL(form_emprestimo_spv))\n\n\n@auth.requires_login()\ndef form_emprestimo_agt():\n\tresponse.title = \'Emprestimo agente\'\n\tid_edit = request.vars[\'id_edit\']\n\tdate = datetime.now()\n\tdate = date.strftime("%Y-%m-%d %I:%M:%S")\n\tls_user = get_user()\n\tprint session.auth.user.id\n\tquery = (db.auth_user.id == session.auth.user.id)\n\tlem = db(query).select(db.auth_user.lembrete)\n\tlem = lem[0].lembrete\n\n\tif id_edit is None:\n\t\tform \t= SQLFORM(db.emprestimo)\n\telse:\n\t\tform \t= SQLFORM(db.emprestimo, id_edit)\n\n\tif form.process().accepted:\n\t\tsession.flash="Registro processado"\n\t\tredirect(URL("form_emprestimo_agt")) \n\telif form.errors:\n\t\tresponse.flash=("Ops, algo est\xc3\xa1 errado")\n\t\n\treturn response.render("initial/form_emprestimo_agt.html", \n\t\t\t\tdate=date, lem=lem, form=form, ls_user=ls_user)\n\n@auth.requires_membership(\'supervisor\', \'admin\')\ndef form_emprestimo_spv():\n\tresponse.title = \'Emprestimo supervisor\'\n\tid_edit = request.vars[\'id_edit\']\n\tcidade = ""\n\tls_user = get_user()\n\tprint ls_user\n\n\tif id_edit is None:\n\t\tform \t= SQLFORM(db.emprestimo)\n\telse:\n\t\tform \t= SQLFORM(db.emprestimo, id_edit)\n\t\tform.element(_name=\'vendedora\')[\'_readonly\'] = \'readonly\'\n\t\tform.element(_name=\'id_empresa\')[\'_readonly\'] = \'readonly\'\n\t\tquery = db.emprestimo.id == id_edit\n\t\tcidade = db(query).select(db.emprestimo.cidade)\n\t\tcidade = cidade[0].cidade\n\n\tif form.process().accepted:\n\t\tsession.flash=("Registro processado")\n\t\tredirect(URL("emprestimo2")) \n\telse:\n\t\tprint request.vars\n\t\n\treturn response.render("initial/form_emprestimo_spv.html", \n\t\tcidade=cidade, id_edit=id_edit, form=form, ls_user=ls_user)\n\ndef get_user():\n\t# get user empresa\n\tuser = session.auth.user.username\n\tuser_emp_id = session.auth.user.id_empresa\n\tquery = (db.empresa.id == session.auth.user.id_empresa)\n\tuser_emp = db(query).select(db.empresa.nome)\n\tls_user=[]\n\tls_user.append(user)\n\tls_user.append(user_emp[0].nome)\n\tls_user.append(user_emp_id)\n\tprint ls_user\n\treturn ls_user\n\n\n@auth.requires(auth.has_membership(\'supervisor\') or auth.has_membership(\'admin\'))\ndef emprestimo():\n\tresponse.title = "Emprestimos pendentes"\n\tquery = (db.emprestimo.id_empresa == db.empresa.id) \\\n\t\t& (db.emprestimo.estado == None) & (db.emprestimo.telefone == "")\\\n\t\t& (db.emprestimo.vendedora == db.auth_user.username)\\\n\t\t& (db.auth_user.supervisor == session.auth.user.username)\n\t\n\t#query =(db.emprestimo.vendedora == db.auth_user.username)\n\t#print db(db.auth_user.id == session.auth.user.username).select(db.auth_user.funcao)\n\t#\n\tpaginate \t=\t10\n\tif not request.vars.page:\n\t\tredirect(URL(vars={\'page\':1}))\n\telse:\n\t\tpage \t=\tint(request.vars.page)\n\tstart \t=\t(page-1)*paginate\n\tend \t=\tpage*paginate\n\tregis \t=\tdb(query).count()\n\tprint regis\n\tx=1\n\tif regis%paginate == 0:\n\t\tx=0\n\t#\t\n\tcon = db(query).select(limitby=(start,end))\n\tgrid \t= SQLFORM.grid(db.emprestimo, user_signature=False)\n\t\n\treturn response.render("initial/list_emprestimo.html", con=con, grid=grid,\n\t\tend=end, paginacao="on", regis=regis, paginate=paginate, x=x)\n\n@auth.requires_membership(\'supervisor\', \'admin\')\ndef emprestimo2():\n\tresponse.title = "Emprestimos totais"\n\tquery = (db.emprestimo.id_empresa == db.empresa.id)\n\t#\n\tpaginate \t=\t10\n\tif not request.vars.page:\n\t\tredirect(URL(vars={\'page\':1}))\n\telse:\n\t\tpage \t=\tint(request.vars.page)\n\tstart \t=\t(page-1)*paginate\n\tend \t=\tpage*paginate\n\tregis \t=\tdb(query).count()\n\tprint regis\n\tx=1\n\tif regis%paginate == 0:\n\t\tx=0\n\t#\t\n\tcon = db(query).select(left=db.estados.on(db.estados.id == db.emprestimo.estado), limitby=(start,end), orderby=db.emprestimo.id)\n\t\n\treturn response.render("initial/list_emprestimo2.html", con=con,\n\t\tend=end, paginacao=\'on\', regis=regis, paginate=paginate, x=x)\n\ndef emprestimo_agt():\n\tresponse.title = "Emprestimos"\n\tuser = session.auth.user.username\n\tquery = (db.emprestimo.id_empresa == db.empresa.id) &\\\n\t(db.emprestimo.vendedora == user)\n\t#\n\tpaginate \t=\t10\n\tif not request.vars.page:\n\t\tredirect(URL(vars={\'page\':1}))\n\telse:\n\t\tpage \t=\tint(request.vars.page)\n\tstart \t=\t(page-1)*paginate\n\tend \t=\tpage*paginate\n\tregis \t=\tdb(query).count()\n\tprint regis\n\tx=1\n\tif regis%paginate == 0:\n\t\tx=0\n\t#\n\n\tcon = db(query).select(left=db.estados.on(db.estados.id == db.emprestimo.estado), limitby=(start,end), orderby=db.emprestimo.id)\n\treturn response.render("initial/list_emprestimo2.html", con=con,\n\t\tend=end, paginacao=\'on\', regis=regis, paginate=paginate, x=x)\n\n\ndef detalhes_emprestimo():\n\tresponse.title = "Detalhes"\n\tid_det = request.vars.id_det\n\tquery=((db.emprestimo.id == id_det) & (db.emprestimo.id_empresa == db.empresa.id))\n\tcon=db(query).select()\n\tprint con\n\n\treturn response.render("initial/detalhes_emprestimo.html", con=con)\n\ndef busca_emp_pend():\n\tresponse.title = "Emprestimos pendentes"\n\tquery = (db.emprestimo.id_empresa == db.empresa.id) \\\n\t\t& (db.emprestimo.estado == None) & (db.emprestimo.telefone == "")\\\n\t\t& (db.emprestimo.cpf == request.vars.cpf)\n\n\tcon = db(query).select(orderby=db.emprestimo.id)\n\t\n\treturn response.render("initial/list_emprestimo.html", con=con,\n\t\t\t\t\t\t\t\t\t\t\t\t\tpaginacao=\'off\')\n\ndef busca_emp_total():\n\tresponse.title = "Emprestimos pendentes"\n\tquery = (db.emprestimo.id_empresa == db.empresa.id)\\\n\t\t& (db.emprestimo.cpf == request.vars.cpf)\n\n\tcon = db(query).select(left=db.estados.on(db.estados.id == db.emprestimo.estado), orderby=db.emprestimo.id)\n\t\n\treturn response.render("initial/list_emprestimo2.html", con=con,\n\t\t\t\t\t\t\t\t\t\t\t\t\tpaginacao=\'off\')\n\n\n\n##---------------------------Situa\xc3\xa7\xc3\xa3o\n@auth.requires_membership(\'supervisor\')\ndef form_situacao():\n\tresponse.title = \'situa\xc3\xa7\xc3\xa3o\'\n\tid_emp = request.vars.id_emp\n\tprint id_emp\n\n\tif id_emp is None:\n\t\tform \t= SQLFORM(db.situacao)\n\telse:\n\t\tquery = db.emprestimo.id == id_emp\n\t\temp =db(query).select(db.emprestimo.id, db.emprestimo.nome)\n\t\temp = emp[0]\n\t\tform \t= SQLFORM(db.situacao)\n\n\tif form.process().accepted:\n\t\tsession.flash=("Registro processado")\n\t\tredirect(URL("situacao?id_emp=%s" %(id_emp))) \n\telse:\n\t\tprint request.vars\n\n\treturn response.render("initial/form_situacao.html", form=form, \n\t\t\t\t\t\t\t\t\t\t\t\temp=emp, id_emp=id_emp)\t\n\n@auth.requires_membership(\'supervisor\')\ndef situacao():\n\tprint request.vars.id_emp\n\tid_emp = request.vars.id_emp\n\tresponse.title = "Situa\xc3\xa7\xc3\xa3o"\n\tquery = (db.situacao.id_emprestimo == db.emprestimo.id) &\\\n\t(db.situacao.id_status == db.status.id) & (db.situacao.id_emprestimo == id_emp)\n\t#\n\tpaginate \t=\t10\n\tif not request.vars.page:\n\t\tredirect(URL(vars={\'page\':1, \'id_emp\':id_emp}))\n\telse:\n\t\tpage \t=\tint(request.vars.page)\n\tstart \t=\t(page-1)*paginate\n\tend \t=\tpage*paginate\n\tregis \t=\tdb(query).count()\n\t#print regis\n\tx=1\n\tif regis%paginate == 0:\n\t\tx=0\n\t\n\tcon = db(query).select(limitby=(start,end), orderby=db.situacao.id)\n\t#con = db(query).select()\n\t\n\treturn response.render("initial/list_situacao.html", con=con, id_emp=id_emp, \n\t\tx=x, end=end, paginacao=\'on\', regis=regis, paginate=paginate) \t\n\n@auth.requires_membership(\'admin\')\ndef users():\n\tprint \'users\'\n\tquery = (db.auth_user.id_empresa == db.empresa.id)\n\tusuarios = db(query).select()\n\tgrid \t= SQLFORM.grid(db.auth_user, csv=False, editable=False, \n\t\t\tdeletable=False, details=False, searchable=False)\n\t#print usuarios\n\t\n\treturn response.render("initial/list_usuario.html", usuarios=usuarios)\n\ndef form_users():\n\tform = SQLFORM(db.auth_user)\n\n\tform.element(_name=\'first_name\')[\'_class\'] = "form-control"\n\tform.element(_name=\'last_name\')[\'_class\'] = "form-control"\n\tform.element(_name=\'email\')[\'_class\'] = "form-control"\n\tform.element(_name=\'username\')[\'_class\'] = "form-control"\n\tform.element(_name=\'password\')[\'_class\'] = "form-control"\n\tform.element(_name=\'funcao\')[\'_class\'] = "form-control"\n\tform.element(_name=\'id_empresa\')[\'_class\'] = "form-control"\n\tform.element(_name=\'supervisor\')[\'_class\'] = "form-control"\n\n\tif form.process().accepted:\n\t\tredirect(users)\n\treturn response.render("initial/form_users.html", form=form)\n\n\ndef group():\n\tprint \'users\'\n\tgrid \t= SQLFORM.grid(db.auth_group, user_signature=False)\n\t#print usuarios\n\t\n\treturn response.render("initial/show_grid.html", grid=grid)\n\ndef membership():\n\tprint \'users\'\n\tgrid \t= SQLFORM.grid(db.auth_membership, user_signature=False)\n\t#print usuarios\n\t\n\treturn response.render("initial/show_grid.html", grid=grid)\n\ndef delete():\n\tfuncao \t=\trequest.vars[\'tabela\']\n\tid_tab\t=\trequest.vars[\'id_tab\']\n\tprint funcao\n\tprint id_tab\n\tif funcao \t== "empresa":\n\t\ttabela \t=\t db.empresa.id\n\tif funcao \t==\t"status":\n\t\ttabela \t= \tdb.status.id\n\tif funcao \t==\t"emprestimo":\n\t\ttabela \t= \tdb.emprestimo.id\n\tif funcao \t==\t"situacao":\n\t\ttabela \t= \tdb.situacao.id\n\tif funcao \t==\t"funcao":\n\t\ttabela \t= \tdb.funcao.id\n\tif funcao \t==\t"banco":\n\t\ttabela \t= \tdb.banco.id\n\tif funcao \t==\t"orgao":\n\t\ttabela \t= \tdb.orgao.id\n\n\tdb(tabela == id_tab).delete()\t\n\tredirect(URL(funcao))\n\ndef lembrete(): \n\tquery = (db.auth_user.id == session.auth.user.id)\n\tdb(query).update(lembrete=request.vars.lembrete)\n\tredirect(URL(form_emprestimo))\n\t\n\n\n\n\t\n\n\n\n\nresponse._vars=response._caller(form_users)\n'
p7
sS'snapshot'
p8
(dp9
S'exception'
p10
(dp11
S'__hash__'
p12
S"<method-wrapper '__hash__' of exceptions.AttributeError object>"
p13
sS'__setattr__'
p14
S"<method-wrapper '__setattr__' of exceptions.AttributeError object>"
p15
sS'__reduce_ex__'
p16
S'<built-in method __reduce_ex__ of exceptions.AttributeError object>'
p17
sS'__getslice__'
p18
S"<method-wrapper '__getslice__' of exceptions.AttributeError object>"
p19
sS'__getitem__'
p20
S"<method-wrapper '__getitem__' of exceptions.AttributeError object>"
p21
sS'__setstate__'
p22
S'<built-in method __setstate__ of exceptions.AttributeError object>'
p23
sS'args'
p24
S'("\'function\' object has no attribute \'replace\'",)'
p25
sS'__reduce__'
p26
S'<built-in method __reduce__ of exceptions.AttributeError object>'
p27
sS'__str__'
p28
S"<method-wrapper '__str__' of exceptions.AttributeError object>"
p29
sS'__format__'
p30
S'<built-in method __format__ of exceptions.AttributeError object>'
p31
sS'__getattribute__'
p32
S"<method-wrapper '__getattribute__' of exceptions.AttributeError object>"
p33
sS'__class__'
p34
S"<type 'exceptions.AttributeError'>"
p35
sS'__unicode__'
p36
S'<built-in method __unicode__ of exceptions.AttributeError object>'
p37
sS'__delattr__'
p38
S"<method-wrapper '__delattr__' of exceptions.AttributeError object>"
p39
sS'__subclasshook__'
p40
S'<built-in method __subclasshook__ of type object>'
p41
sS'__repr__'
p42
S"<method-wrapper '__repr__' of exceptions.AttributeError object>"
p43
sS'__dict__'
p44
S'{}'
p45
sS'__sizeof__'
p46
S'<built-in method __sizeof__ of exceptions.AttributeError object>'
p47
sS'__doc__'
p48
S"'Attribute not found.'"
p49
sS'__init__'
p50
S"<method-wrapper '__init__' of exceptions.AttributeError object>"
p51
sS'__new__'
p52
S'<built-in method __new__ of type object>'
p53
ssS'evalue'
p54
S"'function' object has no attribute 'replace'"
p55
sS'request'
p56
cgluon.html
XML_unpickle
p57
(S's\xdc\\\x00\x00<div><table><tr><td style="font-weight:bold;vertical-align:top">ajax</td><td valign="top">:</td><td><div>False</div></td></tr><tr><td style="font-weight:bold;vertical-align:top">application</td><td valign="top">:</td><td><div>ubercred</div></td></tr><tr><td style="font-weight:bold;vertical-align:top">args</td><td valign="top">:</td><td><div><table></table></div></td></tr><tr><td style="font-weight:bold;vertical-align:top">body</td><td valign="top">:</td><td><div>&lt;open file &#x27;&lt;fdopen&gt;&#x27;, mode &#x27;w+b&#x27; at 0x7f8668399780&gt;</div></td></tr><tr><td style="font-weight:bold;vertical-align:top">cid</td><td valign="top">:</td><td><div>None</div></td></tr><tr><td style="font-weight:bold;vertical-align:top">client</td><td valign="top">:</td><td><div>127.0.0.1</div></td></tr><tr><td style="font-weight:bold;vertical-align:top">controller</td><td valign="top">:</td><td><div>initial</div></td></tr><tr><td style="font-weight:bold;vertical-align:top">cookies</td><td valign="top">:</td><td><div><table><tr><td style="font-weight:bold;vertical-align:top">session_id_admin</td><td valign="top">:</td><td><div>127.0.0.1-c5e2ae32-7853-4266-b07f-9c008cecf43e<table><tr><td style="font-weight:bold;vertical-align:top">comment</td><td valign="top">:</td><td><div></div></td></tr><tr><td style="font-weight:bold;vertical-align:top">domain</td><td valign="top">:</td><td><div></div></td></tr><tr><td style="font-weight:bold;vertical-align:top">expires</td><td valign="top">:</td><td><div></div></td></tr><tr><td style="font-weight:bold;vertical-align:top">httponly</td><td valign="top">:</td><td><div></div></td></tr><tr><td style="font-weight:bold;vertical-align:top">max-age</td><td valign="top">:</td><td><div></div></td></tr><tr><td style="font-weight:bold;vertical-align:top">path</td><td valign="top">:</td><td><div></div></td></tr><tr><td style="font-weight:bold;vertical-align:top">secure</td><td valign="top">:</td><td><div></div></td></tr><tr><td style="font-weight:bold;vertical-align:top">version</td><td valign="top">:</td><td><div></div></td></tr></table></div></td></tr><tr><td style="font-weight:bold;vertical-align:top">session_id_ubercred</td><td valign="top">:</td><td><div>127.0.0.1-37cf0b28-60bd-41a2-8cae-371e7c7ba0f9<table><tr><td style="font-weight:bold;vertical-align:top">comment</td><td valign="top">:</td><td><div></div></td></tr><tr><td style="font-weight:bold;vertical-align:top">domain</td><td valign="top">:</td><td><div></div></td></tr><tr><td style="font-weight:bold;vertical-align:top">expires</td><td valign="top">:</td><td><div></div></td></tr><tr><td style="font-weight:bold;vertical-align:top">httponly</td><td valign="top">:</td><td><div></div></td></tr><tr><td style="font-weight:bold;vertical-align:top">max-age</td><td valign="top">:</td><td><div></div></td></tr><tr><td style="font-weight:bold;vertical-align:top">path</td><td valign="top">:</td><td><div></div></td></tr><tr><td style="font-weight:bold;vertical-align:top">secure</td><td valign="top">:</td><td><div></div></td></tr><tr><td style="font-weight:bold;vertical-align:top">version</td><td valign="top">:</td><td><div></div></td></tr></table></div></td></tr></table></div></td></tr><tr><td style="font-weight:bold;vertical-align:top">env</td><td valign="top">:</td><td><div><table><tr><td style="font-weight:bold;vertical-align:top">app_folders</td><td valign="top">:</td><td><div>set([&#x27;/home/fernado/web2py/tronco/applications/ubercred/&#x27;, &#x27;/home/fernado/web2py/tronco/applications/admin/&#x27;])</div></td></tr><tr><td style="font-weight:bold;vertical-align:top">applications_parent</td><td valign="top">:</td><td><div>/home/fernado/web2py/tronco</div></td></tr><tr><td style="font-weight:bold;vertical-align:top">cmd_args</td><td valign="top">:</td><td><div><table></table></div></td></tr><tr><td style="font-weight:bold;vertical-align:top">cmd_options</td><td valign="top">:</td><td><div>&lt;Values at 0x3469290: {&#x27;verbose&#x27;: False, &#x27;ip&#x27;: &#x27;127.0.0.1&#x27;, &#x27;with_scheduler&#x27;: False, &#x27;ips&#x27;: [], &#x27;shutdown_timeout&#x27;: 5, &#x27;taskbar&#x27;: False, &#x27;with_coverage&#x27;: False, &#x27;port&#x27;: 8000, &#x27;maxthreads&#x27;: None, &#x27;softcron&#x27;: False, &#x27;server_name&#x27;: &#x27;fernando-workstation&#x27;, &#x27;bpython&#x27;: False, &#x27;nogui&#x27;: False, &#x27;pid_filename&#x27;: &#x27;httpserver.pid&#x27;, &#x27;extcron&#x27;: False, &#x27;runcron&#x27;: False, &#x27;run_system_tests&#x27;: False, &#x27;test&#x27;: None, &#x27;folder&#x27;: &#x27;/home/fernado/web2py/tronco&#x27;, &#x27;config&#x27;: &#x27;&#x27;, &#x27;minthreads&#x27;: None, &#x27;winservice&#x27;: &#x27;&#x27;, &#x27;shell&#x27;: None, &#x27;run&#x27;: &#x27;&#x27;, &#x27;log_filename&#x27;: &#x27;httpserver.log&#x27;, &#x27;debuglevel&#x27;: 30, &#x27;args&#x27;: [&#x27;&#x27;], &#x27;socket_timeout&#x27;: 5, &#x27;ssl_ca_certificate&#x27;: None, &#x27;scheduler&#x27;: None, &#x27;profiler_filename&#x27;: None, &#x27;ssl_private_key&#x27;: &#x27;&#x27;, &#x27;scheduler_groups&#x27;: None, &#x27;password&#x27;: &#x27;123456&#x27;, &#x27;request_queue_size&#x27;: 5, &#x27;ssl_certificate&#x27;: &#x27;&#x27;, &#x27;cronjob&#x27;: False, &#x27;numthreads&#x27;: None, &#x27;quiet&#x27;: False, &#x27;interfaces&#x27;: None, &#x27;import_models&#x27;: False, &#x27;timeout&#x27;: 10, &#x27;plain&#x27;: False, &#x27;nobanner&#x27;: False}&gt;</div></td></tr><tr><td style="font-weight:bold;vertical-align:top">content_length</td><td valign="top">:</td><td><div>1092</div></td></tr><tr><td style="font-weight:bold;vertical-align:top">content_type</td><td valign="top">:</td><td><div>multipart/form-data; boundary=----WebKitFormBoundaryq7aFneW9dwSSbtt5</div></td></tr><tr><td style="font-weight:bold;vertical-align:top">db_sessions</td><td valign="top">:</td><td><div>set([])</div></td></tr><tr><td style="font-weight:bold;vertical-align:top">debugging</td><td valign="top">:</td><td><div>False</div></td></tr><tr><td style="font-weight:bold;vertical-align:top">gluon_parent</td><td valign="top">:</td><td><div>/home/fernado/web2py/tronco</div></td></tr><tr><td style="font-weight:bold;vertical-align:top">http_accept</td><td valign="top">:</td><td><div>text/html,application/xhtml+xml,application/xml;q=0.9,image/webp,*/*;q=0.8</div></td></tr><tr><td style="font-weight:bold;vertical-align:top">http_accept_encoding</td><td valign="top">:</td><td><div>gzip,deflate,sdch</div></td></tr><tr><td style="font-weight:bold;vertical-align:top">http_accept_language</td><td valign="top">:</td><td><div>pt-BR,pt;q=0.8,en-US;q=0.6,en;q=0.4</div></td></tr><tr><td style="font-weight:bold;vertical-align:top">http_connection</td><td valign="top">:</td><td><div>keep-alive</div></td></tr><tr><td style="font-weight:bold;vertical-align:top">http_content_length</td><td valign="top">:</td><td><div>1092</div></td></tr><tr><td style="font-weight:bold;vertical-align:top">http_content_type</td><td valign="top">:</td><td><div>multipart/form-data; boundary=----WebKitFormBoundaryq7aFneW9dwSSbtt5</div></td></tr><tr><td style="font-weight:bold;vertical-align:top">http_cookie</td><td valign="top">:</td><td><div>session_id_admin=127.0.0.1-c5e2ae32-7853-4266-b07f-9c008cecf43e; session_id_ubercred=127.0.0.1-37cf0b28-60bd-41a2-8cae-371e7c7ba0f9</div></td></tr><tr><td style="font-weight:bold;vertical-align:top">http_host</td><td valign="top">:</td><td><div>127.0.0.1:8000</div></td></tr><tr><td style="font-weight:bold;vertical-align:top">http_origin</td><td valign="top">:</td><td><div>http://127.0.0.1:8000</div></td></tr><tr><td style="font-weight:bold;vertical-align:top">http_referer</td><td valign="top">:</td><td><div>http://127.0.0.1:8000/ubercred/form_users</div></td></tr><tr><td style="font-weight:bold;vertical-align:top">http_user_agent</td><td valign="top">:</td><td><div>Mozilla/5.0 (X11; Linux x86_64) AppleWebKit/537.36 (KHTML, like Gecko) Chrome/30.0.1599.114 Safari/537.36</div></td></tr><tr><td style="font-weight:bold;vertical-align:top">is_jython</td><td valign="top">:</td><td><div>False</div></td></tr><tr><td style="font-weight:bold;vertical-align:top">is_pypy</td><td valign="top">:</td><td><div>False</div></td></tr><tr><td style="font-weight:bold;vertical-align:top">local_hosts</td><td valign="top">:</td><td><div><table><tr><td><div>::1</div></td></tr><tr><td><div>::ffff:127.0.0.1</div></td></tr><tr><td><div>127.0.0.1</div></td></tr><tr><td><div>fernando-workstation</div></td></tr></table></div></td></tr><tr><td style="font-weight:bold;vertical-align:top">path_info</td><td valign="top">:</td><td><div>/ubercred/form_users</div></td></tr><tr><td style="font-weight:bold;vertical-align:top">query_string</td><td valign="top">:</td><td><div></div></td></tr><tr><td style="font-weight:bold;vertical-align:top">remote_addr</td><td valign="top">:</td><td><div>127.0.0.1</div></td></tr><tr><td style="font-weight:bold;vertical-align:top">remote_port</td><td valign="top">:</td><td><div>55297</div></td></tr><tr><td style="font-weight:bold;vertical-align:top">request_method</td><td valign="top">:</td><td><div>POST</div></td></tr><tr><td style="font-weight:bold;vertical-align:top">request_uri</td><td valign="top">:</td><td><div>/ubercred/initial/form_users</div></td></tr><tr><td style="font-weight:bold;vertical-align:top">script_name</td><td valign="top">:</td><td><div></div></td></tr><tr><td style="font-weight:bold;vertical-align:top">server_name</td><td valign="top">:</td><td><div>fernando-workstation</div></td></tr><tr><td style="font-weight:bold;vertical-align:top">server_port</td><td valign="top">:</td><td><div>8000</div></td></tr><tr><td style="font-weight:bold;vertical-align:top">server_protocol</td><td valign="top">:</td><td><div>HTTP/1.1</div></td></tr><tr><td style="font-weight:bold;vertical-align:top">server_software</td><td valign="top">:</td><td><div>Rocket 1.2.6</div></td></tr><tr><td style="font-weight:bold;vertical-align:top">web2py_original_uri</td><td valign="top">:</td><td><div>/ubercred/form_users</div></td></tr><tr><td style="font-weight:bold;vertical-align:top">web2py_path</td><td valign="top">:</td><td><div>/home/fernado/web2py/tronco</div></td></tr><tr><td style="font-weight:bold;vertical-align:top">web2py_version</td><td valign="top">:</td><td><div>2.5.1-stable+timestamp.2013.06.06.15.39.19</div></td></tr><tr><td style="font-weight:bold;vertical-align:top">wsgi_errors</td><td valign="top">:</td><td><div>&lt;open file &#x27;&lt;stderr&gt;&#x27;, mode &#x27;w&#x27; at 0x7f8682143270&gt;</div></td></tr><tr><td style="font-weight:bold;vertical-align:top">wsgi_file_wrapper</td><td valign="top">:</td><td><div>&lt;class wsgiref.util.FileWrapper at 0x33bed50&gt;</div></td></tr><tr><td style="font-weight:bold;vertical-align:top">wsgi_input</td><td valign="top">:</td><td><div>&lt;socket._fileobject object at 0x7f8670f875d0&gt;</div></td></tr><tr><td style="font-weight:bold;vertical-align:top">wsgi_multiprocess</td><td valign="top">:</td><td><div>False</div></td></tr><tr><td style="font-weight:bold;vertical-align:top">wsgi_multithread</td><td valign="top">:</td><td><div>True</div></td></tr><tr><td style="font-weight:bold;vertical-align:top">wsgi_run_once</td><td valign="top">:</td><td><div>False</div></td></tr><tr><td style="font-weight:bold;vertical-align:top">wsgi_url_scheme</td><td valign="top">:</td><td><div>http</div></td></tr><tr><td style="font-weight:bold;vertical-align:top">wsgi_version</td><td valign="top">:</td><td><div><table><tr><td><div>1</div></td></tr><tr><td><div>0</div></td></tr></table></div></td></tr></table></div></td></tr><tr><td style="font-weight:bold;vertical-align:top">extension</td><td valign="top">:</td><td><div>html</div></td></tr><tr><td style="font-weight:bold;vertical-align:top">folder</td><td valign="top">:</td><td><div>/home/fernado/web2py/tronco/applications/ubercred/</div></td></tr><tr><td style="font-weight:bold;vertical-align:top">function</td><td valign="top">:</td><td><div>form_users</div></td></tr><tr><td style="font-weight:bold;vertical-align:top">get_vars</td><td valign="top">:</td><td><div><table></table></div></td></tr><tr><td style="font-weight:bold;vertical-align:top">global_settings</td><td valign="top">:</td><td><div><table><tr><td style="font-weight:bold;vertical-align:top">app_folders</td><td valign="top">:</td><td><div>set([&#x27;/home/fernado/web2py/tronco/applications/ubercred/&#x27;, &#x27;/home/fernado/web2py/tronco/applications/admin/&#x27;])</div></td></tr><tr><td style="font-weight:bold;vertical-align:top">applications_parent</td><td valign="top">:</td><td><div>/home/fernado/web2py/tronco</div></td></tr><tr><td style="font-weight:bold;vertical-align:top">cmd_args</td><td valign="top">:</td><td><div><table></table></div></td></tr><tr><td style="font-weight:bold;vertical-align:top">cmd_options</td><td valign="top">:</td><td><div>&lt;Values at 0x3469290: {&#x27;verbose&#x27;: False, &#x27;ip&#x27;: &#x27;127.0.0.1&#x27;, &#x27;with_scheduler&#x27;: False, &#x27;ips&#x27;: [], &#x27;shutdown_timeout&#x27;: 5, &#x27;taskbar&#x27;: False, &#x27;with_coverage&#x27;: False, &#x27;port&#x27;: 8000, &#x27;maxthreads&#x27;: None, &#x27;softcron&#x27;: False, &#x27;server_name&#x27;: &#x27;fernando-workstation&#x27;, &#x27;bpython&#x27;: False, &#x27;nogui&#x27;: False, &#x27;pid_filename&#x27;: &#x27;httpserver.pid&#x27;, &#x27;extcron&#x27;: False, &#x27;runcron&#x27;: False, &#x27;run_system_tests&#x27;: False, &#x27;test&#x27;: None, &#x27;folder&#x27;: &#x27;/home/fernado/web2py/tronco&#x27;, &#x27;config&#x27;: &#x27;&#x27;, &#x27;minthreads&#x27;: None, &#x27;winservice&#x27;: &#x27;&#x27;, &#x27;shell&#x27;: None, &#x27;run&#x27;: &#x27;&#x27;, &#x27;log_filename&#x27;: &#x27;httpserver.log&#x27;, &#x27;debuglevel&#x27;: 30, &#x27;args&#x27;: [&#x27;&#x27;], &#x27;socket_timeout&#x27;: 5, &#x27;ssl_ca_certificate&#x27;: None, &#x27;scheduler&#x27;: None, &#x27;profiler_filename&#x27;: None, &#x27;ssl_private_key&#x27;: &#x27;&#x27;, &#x27;scheduler_groups&#x27;: None, &#x27;password&#x27;: &#x27;123456&#x27;, &#x27;request_queue_size&#x27;: 5, &#x27;ssl_certificate&#x27;: &#x27;&#x27;, &#x27;cronjob&#x27;: False, &#x27;numthreads&#x27;: None, &#x27;quiet&#x27;: False, &#x27;interfaces&#x27;: None, &#x27;import_models&#x27;: False, &#x27;timeout&#x27;: 10, &#x27;plain&#x27;: False, &#x27;nobanner&#x27;: False}&gt;</div></td></tr><tr><td style="font-weight:bold;vertical-align:top">db_sessions</td><td valign="top">:</td><td><div>set([])</div></td></tr><tr><td style="font-weight:bold;vertical-align:top">debugging</td><td valign="top">:</td><td><div>False</div></td></tr><tr><td style="font-weight:bold;vertical-align:top">gluon_parent</td><td valign="top">:</td><td><div>/home/fernado/web2py/tronco</div></td></tr><tr><td style="font-weight:bold;vertical-align:top">is_jython</td><td valign="top">:</td><td><div>False</div></td></tr><tr><td style="font-weight:bold;vertical-align:top">is_pypy</td><td valign="top">:</td><td><div>False</div></td></tr><tr><td style="font-weight:bold;vertical-align:top">local_hosts</td><td valign="top">:</td><td><div><table><tr><td><div>::1</div></td></tr><tr><td><div>::ffff:127.0.0.1</div></td></tr><tr><td><div>127.0.0.1</div></td></tr><tr><td><div>fernando-workstation</div></td></tr></table></div></td></tr><tr><td style="font-weight:bold;vertical-align:top">web2py_version</td><td valign="top">:</td><td><div>2.5.1-stable+timestamp.2013.06.06.15.39.19</div></td></tr></table></div></td></tr><tr><td style="font-weight:bold;vertical-align:top">is_https</td><td valign="top">:</td><td><div>False</div></td></tr><tr><td style="font-weight:bold;vertical-align:top">is_local</td><td valign="top">:</td><td><div>True</div></td></tr><tr><td style="font-weight:bold;vertical-align:top">is_restful</td><td valign="top">:</td><td><div>False</div></td></tr><tr><td style="font-weight:bold;vertical-align:top">now</td><td valign="top">:</td><td><div>datetime.datetime(2014, 4, 16, 9, 31, 40, 251189)</div></td></tr><tr><td style="font-weight:bold;vertical-align:top">post_vars</td><td valign="top">:</td><td><div><table><tr><td style="font-weight:bold;vertical-align:top">email</td><td valign="top">:</td><td><div>teste@gmail.com</div></td></tr><tr><td style="font-weight:bold;vertical-align:top">first_name</td><td valign="top">:</td><td><div>teste</div></td></tr><tr><td style="font-weight:bold;vertical-align:top">funcao</td><td valign="top">:</td><td><div>agente</div></td></tr><tr><td style="font-weight:bold;vertical-align:top">id_empresa</td><td valign="top">:</td><td><div>1</div></td></tr><tr><td style="font-weight:bold;vertical-align:top">last_name</td><td valign="top">:</td><td><div>teste</div></td></tr><tr><td style="font-weight:bold;vertical-align:top">password</td><td valign="top">:</td><td><div>123456</div></td></tr><tr><td style="font-weight:bold;vertical-align:top">supervisor</td><td valign="top">:</td><td><div></div></td></tr><tr><td style="font-weight:bold;vertical-align:top">username</td><td valign="top">:</td><td><div>teste</div></td></tr></table></div></td></tr><tr><td style="font-weight:bold;vertical-align:top">url</td><td valign="top">:</td><td><div>/ubercred/form_users</div></td></tr><tr><td style="font-weight:bold;vertical-align:top">utcnow</td><td valign="top">:</td><td><div>datetime.datetime(2014, 4, 16, 12, 31, 40, 251396)</div></td></tr><tr><td style="font-weight:bold;vertical-align:top">uuid</td><td valign="top">:</td><td><div>ubercred/127.0.0.1.2014-04-16.09-31-40.898d3f9f-9512-476e-8eee-249d4a550901</div></td></tr><tr><td style="font-weight:bold;vertical-align:top">vars</td><td valign="top">:</td><td><div><table><tr><td style="font-weight:bold;vertical-align:top">email</td><td valign="top">:</td><td><div>teste@gmail.com</div></td></tr><tr><td style="font-weight:bold;vertical-align:top">first_name</td><td valign="top">:</td><td><div>teste</div></td></tr><tr><td style="font-weight:bold;vertical-align:top">funcao</td><td valign="top">:</td><td><div>agente</div></td></tr><tr><td style="font-weight:bold;vertical-align:top">id_empresa</td><td valign="top">:</td><td><div>1</div></td></tr><tr><td style="font-weight:bold;vertical-align:top">last_name</td><td valign="top">:</td><td><div>teste</div></td></tr><tr><td style="font-weight:bold;vertical-align:top">password</td><td valign="top">:</td><td><div>123456</div></td></tr><tr><td style="font-weight:bold;vertical-align:top">supervisor</td><td valign="top">:</td><td><div></div></td></tr><tr><td style="font-weight:bold;vertical-align:top">username</td><td valign="top">:</td><td><div>teste</div></td></tr></table></div></td></tr><tr><td style="font-weight:bold;vertical-align:top">wsgi</td><td valign="top">:</td><td><div><table><tr><td style="font-weight:bold;vertical-align:top">environ</td><td valign="top">:</td><td><div><table><tr><td style="font-weight:bold;vertical-align:top">CONTENT_LENGTH</td><td valign="top">:</td><td><div>1092</div></td></tr><tr><td style="font-weight:bold;vertical-align:top">CONTENT_TYPE</td><td valign="top">:</td><td><div>multipart/form-data; boundary=----WebKitFormBoundaryq7aFneW9dwSSbtt5</div></td></tr><tr><td style="font-weight:bold;vertical-align:top">HTTP_ACCEPT</td><td valign="top">:</td><td><div>text/html,application/xhtml+xml,application/xml;q=0.9,image/webp,*/*;q=0.8</div></td></tr><tr><td style="font-weight:bold;vertical-align:top">HTTP_ACCEPT_ENCODING</td><td valign="top">:</td><td><div>gzip,deflate,sdch</div></td></tr><tr><td style="font-weight:bold;vertical-align:top">HTTP_ACCEPT_LANGUAGE</td><td valign="top">:</td><td><div>pt-BR,pt;q=0.8,en-US;q=0.6,en;q=0.4</div></td></tr><tr><td style="font-weight:bold;vertical-align:top">HTTP_CONNECTION</td><td valign="top">:</td><td><div>keep-alive</div></td></tr><tr><td style="font-weight:bold;vertical-align:top">HTTP_CONTENT_LENGTH</td><td valign="top">:</td><td><div>1092</div></td></tr><tr><td style="font-weight:bold;vertical-align:top">HTTP_CONTENT_TYPE</td><td valign="top">:</td><td><div>multipart/form-data; boundary=----WebKitFormBoundaryq7aFneW9dwSSbtt5</div></td></tr><tr><td style="font-weight:bold;vertical-align:top">HTTP_COOKIE</td><td valign="top">:</td><td><div>session_id_admin=127.0.0.1-c5e2ae32-7853-4266-b07f-9c008cecf43e; session_id_ubercred=127.0.0.1-37cf0b28-60bd-41a2-8cae-371e7c7ba0f9</div></td></tr><tr><td style="font-weight:bold;vertical-align:top">HTTP_HOST</td><td valign="top">:</td><td><div>127.0.0.1:8000</div></td></tr><tr><td style="font-weight:bold;vertical-align:top">HTTP_ORIGIN</td><td valign="top">:</td><td><div>http://127.0.0.1:8000</div></td></tr><tr><td style="font-weight:bold;vertical-align:top">HTTP_REFERER</td><td valign="top">:</td><td><div>http://127.0.0.1:8000/ubercred/form_users</div></td></tr><tr><td style="font-weight:bold;vertical-align:top">HTTP_USER_AGENT</td><td valign="top">:</td><td><div>Mozilla/5.0 (X11; Linux x86_64) AppleWebKit/537.36 (KHTML, like Gecko) Chrome/30.0.1599.114 Safari/537.36</div></td></tr><tr><td style="font-weight:bold;vertical-align:top">PATH_INFO</td><td valign="top">:</td><td><div>/ubercred/form_users</div></td></tr><tr><td style="font-weight:bold;vertical-align:top">QUERY_STRING</td><td valign="top">:</td><td><div></div></td></tr><tr><td style="font-weight:bold;vertical-align:top">REMOTE_ADDR</td><td valign="top">:</td><td><div>127.0.0.1</div></td></tr><tr><td style="font-weight:bold;vertical-align:top">REMOTE_PORT</td><td valign="top">:</td><td><div>55297</div></td></tr><tr><td style="font-weight:bold;vertical-align:top">REQUEST_METHOD</td><td valign="top">:</td><td><div>POST</div></td></tr><tr><td style="font-weight:bold;vertical-align:top">REQUEST_URI</td><td valign="top">:</td><td><div>/ubercred/initial/form_users</div></td></tr><tr><td style="font-weight:bold;vertical-align:top">SCRIPT_NAME</td><td valign="top">:</td><td><div></div></td></tr><tr><td style="font-weight:bold;vertical-align:top">SERVER_NAME</td><td valign="top">:</td><td><div>fernando-workstation</div></td></tr><tr><td style="font-weight:bold;vertical-align:top">SERVER_PORT</td><td valign="top">:</td><td><div>8000</div></td></tr><tr><td style="font-weight:bold;vertical-align:top">SERVER_PROTOCOL</td><td valign="top">:</td><td><div>HTTP/1.1</div></td></tr><tr><td style="font-weight:bold;vertical-align:top">SERVER_SOFTWARE</td><td valign="top">:</td><td><div>Rocket 1.2.6</div></td></tr><tr><td style="font-weight:bold;vertical-align:top">WEB2PY_ORIGINAL_URI</td><td valign="top">:</td><td><div>/ubercred/form_users</div></td></tr><tr><td style="font-weight:bold;vertical-align:top">wsgi.errors</td><td valign="top">:</td><td><div>&lt;open file &#x27;&lt;stderr&gt;&#x27;, mode &#x27;w&#x27; at 0x7f8682143270&gt;</div></td></tr><tr><td style="font-weight:bold;vertical-align:top">wsgi.file_wrapper</td><td valign="top">:</td><td><div>&lt;class wsgiref.util.FileWrapper at 0x33bed50&gt;</div></td></tr><tr><td style="font-weight:bold;vertical-align:top">wsgi.input</td><td valign="top">:</td><td><div>&lt;open file &#x27;&lt;fdopen&gt;&#x27;, mode &#x27;w+b&#x27; at 0x7f8668399780&gt;</div></td></tr><tr><td style="font-weight:bold;vertical-align:top">wsgi.multiprocess</td><td valign="top">:</td><td><div>False</div></td></tr><tr><td style="font-weight:bold;vertical-align:top">wsgi.multithread</td><td valign="top">:</td><td><div>True</div></td></tr><tr><td style="font-weight:bold;vertical-align:top">wsgi.run_once</td><td valign="top">:</td><td><div>False</div></td></tr><tr><td style="font-weight:bold;vertical-align:top">wsgi.url_scheme</td><td valign="top">:</td><td><div>http</div></td></tr><tr><td style="font-weight:bold;vertical-align:top">wsgi.version</td><td valign="top">:</td><td><div>1</div></td></tr></table></div></td></tr></table></div></td></tr></table></div>'
tRp58
sS'frames'
p59
(lp60
(dp61
S'file'
p62
S'/home/fernado/web2py/tronco/gluon/restricted.py'
p63
sS'dump'
p64
(dp65
S'environment'
p66
S"{'A': <class 'gluon.html.A'>, 'ANY_OF': <class 'gluon.validators.ANY_OF'>, 'Auth': <class 'gluon.tools.Auth'>, 'B': <class 'gluon.html.B'>, 'BEAUTIFY': <class 'gluon.html.BEAUTIFY'>, 'BODY': <class 'gluon.html.BODY'>, 'BR': <class 'gluon.html.BR'>, 'BUTTON': <class 'gluon.html.BUTTON'>, 'CAT': <class 'gluon.html.CAT'>, 'CENTER': <class 'gluon.html.CENTER'>, ...}"
p67
sS'ccode'
p68
S'<code object <module> at 0x7f8668390230, file "/...cations/ubercred/controllers/initial.py", line 2>'
p69
ssS'lnum'
p70
I212
sS'lines'
p71
(dp72
I207
S'    try:'
p73
sI208
S'        if isinstance(code, types.CodeType):'
p74
sI209
S'            ccode = code'
p75
sI210
S'        else:'
p76
sI211
S'            ccode = compile2(code, layer)'
p77
sI212
S'        exec ccode in environment'
p78
sI213
S'    except HTTP:'
p79
sI214
S'        raise'
p80
sI215
S'    except RestrictedError:'
p81
sI216
S'        # do not encapsulate (obfuscate) the original RestrictedError'
p82
ssS'call'
p83
S"(code='# coding=UTF-8\\nimport  json\\nfrom datetime import...\\n\\n\\n\\n\\nresponse._vars=response._caller(form_users)\\n', environment={'A': <class 'gluon.html.A'>, 'ANY_OF': <class 'gluon.validators.ANY_OF'>, 'Auth': <class 'gluon.tools.Auth'>, 'B': <class 'gluon.html.B'>, 'BEAUTIFY': <class 'gluon.html.BEAUTIFY'>, 'BODY': <class 'gluon.html.BODY'>, 'BR': <class 'gluon.html.BR'>, 'BUTTON': <class 'gluon.html.BUTTON'>, 'CAT': <class 'gluon.html.CAT'>, 'CENTER': <class 'gluon.html.CENTER'>, ...}, layer='/home/fernado/web2py/tronco/applications/ubercred/controllers/initial.py')"
p84
sS'func'
p85
S'restricted'
p86
sa(dp87
g62
S'/home/fernado/web2py/tronco/applications/ubercred/controllers/initial.py'
p88
sg64
(dp89
sg70
I533
sg71
(dp90
I522
S'\tdb(query).update(lembrete=request.vars.lembrete)'
p91
sI523
S'\tredirect(URL(form_emprestimo))'
p92
sI524
S''
sI525
S''
sI526
S''
sI527
S''
sI528
S''
sI529
S''
sI530
S''
sI531
S''
ssg83
S'()'
p93
sg85
S'<module>'
p94
sa(dp95
g62
S'/home/fernado/web2py/tronco/gluon/globals.py'
p96
sg64
(dp97
S'self'
p98
S'undefined'
p99
sS'f'
S'<function form_users>'
p100
ssg70
I194
sg71
(dp101
I192
S"        self.delimiters = ('{{', '}}')"
p102
sI193
S'        self._vars = None'
p103
sI194
S'        self._caller = lambda f: f()'
p104
sI195
S'        self._view_environment = None'
p105
sI196
S'        self._custom_commit = None'
p106
sI197
S'        self._custom_rollback = None'
p107
sI198
S''
sI189
S'        self.menu = []             # used by the default view layout'
p108
sI190
S'        self.files = []            # used by web2py_ajax.html'
p109
sI191
S'        self.generic_patterns = []  # patterns to allow generic views'
p110
ssg83
S'(f=<function form_users>)'
p111
sg85
S'<lambda>'
p112
sa(dp113
g62
S'/home/fernado/web2py/tronco/applications/ubercred/controllers/initial.py'
p114
sg64
(dp115
S'global redirect'
p116
S'<function redirect>'
p117
sS'global users'
p118
S'<function users>'
p119
ssg70
I479
sg71
(dp120
I480
S'\treturn response.render("initial/form_users.html", form=form)'
p121
sI481
S''
sI482
S''
sI483
S'def group():'
p122
sI474
S'\tform.element(_name=\'funcao\')[\'_class\'] = "form-control"'
p123
sI475
S'\tform.element(_name=\'id_empresa\')[\'_class\'] = "form-control"'
p124
sI476
S'\tform.element(_name=\'supervisor\')[\'_class\'] = "form-control"'
p125
sI477
S''
sI478
S'\tif form.process().accepted:'
p126
sI479
S'\t\tredirect(users)'
p127
ssg83
S'()'
p128
sg85
S'form_users'
p129
sa(dp130
g62
S'/home/fernado/web2py/tronco/gluon/http.py'
p131
sg64
(dp132
S'loc'
p133
g99
sS'location'
p134
S'<function users>'
p135
sS'location.replace'
p136
g99
ssg70
I144
sg71
(dp137
I139
S''
sI140
S''
sI141
S"def redirect(location='', how=303, client_side=False):"
p138
sI142
S'    if location:'
p139
sI143
S'        from gluon import current'
p140
sI144
S"        loc = location.replace('\\r', '%0D').replace('\\n', '%0A')"
p141
sI145
S'        if client_side and current.request.ajax:'
p142
sI146
S"            raise HTTP(200, **{'web2py-redirect-location': loc})"
p143
sI147
S'        else:'
p144
sI148
S'            raise HTTP(how,'
p145
ssg83
S'(location=<function users>, how=303, client_side=False)'
p146
sg85
S'redirect'
p147
sasS'pyver'
p148
S'Python 2.7.3: /usr/bin/python (prefix: /usr)'
p149
sS'session'
p150
g57
(S's\xab\n\x00\x00<div><table><tr><td style="font-weight:bold;vertical-align:top">auth</td><td valign="top">:</td><td><div><table><tr><td style="font-weight:bold;vertical-align:top">expiration</td><td valign="top">:</td><td><div>3600</div></td></tr><tr><td style="font-weight:bold;vertical-align:top">hmac_key</td><td valign="top">:</td><td><div>22ee39db-27c3-499b-b631-01ba35573aa3</div></td></tr><tr><td style="font-weight:bold;vertical-align:top">last_visit</td><td valign="top">:</td><td><div>datetime.datetime(2014, 4, 16, 9, 27, 15, 89288)</div></td></tr><tr><td style="font-weight:bold;vertical-align:top">remember</td><td valign="top">:</td><td><div>False</div></td></tr><tr><td style="font-weight:bold;vertical-align:top">user</td><td valign="top">:</td><td><div><table><tr><td style="font-weight:bold;vertical-align:top">email</td><td valign="top">:</td><td><div>admin@admin.com</div></td></tr><tr><td style="font-weight:bold;vertical-align:top">first_name</td><td valign="top">:</td><td><div>admin</div></td></tr><tr><td style="font-weight:bold;vertical-align:top">funcao</td><td valign="top">:</td><td><div>admin</div></td></tr><tr><td style="font-weight:bold;vertical-align:top">id</td><td valign="top">:</td><td><div>1L</div></td></tr><tr><td style="font-weight:bold;vertical-align:top">id_empresa</td><td valign="top">:</td><td><div>1L</div></td></tr><tr><td style="font-weight:bold;vertical-align:top">last_name</td><td valign="top">:</td><td><div>admin</div></td></tr><tr><td style="font-weight:bold;vertical-align:top">lembrete</td><td valign="top">:</td><td><div></div></td></tr><tr><td style="font-weight:bold;vertical-align:top">registration_id</td><td valign="top">:</td><td><div></div></td></tr><tr><td style="font-weight:bold;vertical-align:top">registration_key</td><td valign="top">:</td><td><div></div></td></tr><tr><td style="font-weight:bold;vertical-align:top">reset_password_key</td><td valign="top">:</td><td><div></div></td></tr><tr><td style="font-weight:bold;vertical-align:top">supervisor</td><td valign="top">:</td><td><div></div></td></tr><tr><td style="font-weight:bold;vertical-align:top">username</td><td valign="top">:</td><td><div>admin</div></td></tr></table></div></td></tr><tr><td style="font-weight:bold;vertical-align:top">user_groups</td><td valign="top">:</td><td><div><table><tr><td style="font-weight:bold;vertical-align:top">3</td><td valign="top">:</td><td><div>admin</div></td></tr></table></div></td></tr></table></div></td></tr><tr><td style="font-weight:bold;vertical-align:top">flash</td><td valign="top">:</td><td><div>None</div></td></tr><tr><td style="font-weight:bold;vertical-align:top">raiz</td><td valign="top">:</td><td><div>/home/fernado/web2py/tronco</div></td></tr></table></div>'
tRp151
sS'etype'
p152
S"<type 'exceptions.AttributeError'>"
p153
sS'date'
p154
S'Wed Apr 16 09:31:40 2014'
p155
sS'response'
p156
g57
(S's\x1d\x1e\x00\x00<div><table><tr><td style="font-weight:bold;vertical-align:top">body</td><td valign="top">:</td><td><div>&lt;cStringIO.StringO object at 0x7f866c239928&gt;</div></td></tr><tr><td style="font-weight:bold;vertical-align:top">cookies</td><td valign="top">:</td><td><div><table><tr><td style="font-weight:bold;vertical-align:top">session_id_ubercred</td><td valign="top">:</td><td><div>127.0.0.1-37cf0b28-60bd-41a2-8cae-371e7c7ba0f9<table><tr><td style="font-weight:bold;vertical-align:top">comment</td><td valign="top">:</td><td><div></div></td></tr><tr><td style="font-weight:bold;vertical-align:top">domain</td><td valign="top">:</td><td><div></div></td></tr><tr><td style="font-weight:bold;vertical-align:top">expires</td><td valign="top">:</td><td><div></div></td></tr><tr><td style="font-weight:bold;vertical-align:top">httponly</td><td valign="top">:</td><td><div></div></td></tr><tr><td style="font-weight:bold;vertical-align:top">max-age</td><td valign="top">:</td><td><div></div></td></tr><tr><td style="font-weight:bold;vertical-align:top">path</td><td valign="top">:</td><td><div>/</div></td></tr><tr><td style="font-weight:bold;vertical-align:top">secure</td><td valign="top">:</td><td><div></div></td></tr><tr><td style="font-weight:bold;vertical-align:top">version</td><td valign="top">:</td><td><div></div></td></tr></table></div></td></tr></table></div></td></tr><tr><td style="font-weight:bold;vertical-align:top">delimiters</td><td valign="top">:</td><td><div><table><tr><td><div>{{</div></td></tr><tr><td><div>}}</div></td></tr></table></div></td></tr><tr><td style="font-weight:bold;vertical-align:top">files</td><td valign="top">:</td><td><div><table></table></div></td></tr><tr><td style="font-weight:bold;vertical-align:top">flash</td><td valign="top">:</td><td><div>Success!</div></td></tr><tr><td style="font-weight:bold;vertical-align:top">generic_patterns</td><td valign="top">:</td><td><div><table><tr><td><div>*</div></td></tr></table></div></td></tr><tr><td style="font-weight:bold;vertical-align:top">google_analytics_id</td><td valign="top">:</td><td><div>None</div></td></tr><tr><td style="font-weight:bold;vertical-align:top">headers</td><td valign="top">:</td><td><div><table><tr><td style="font-weight:bold;vertical-align:top">X-Powered-By</td><td valign="top">:</td><td><div>web2py</div></td></tr></table></div></td></tr><tr><td style="font-weight:bold;vertical-align:top">menu</td><td valign="top">:</td><td><div><table><tr><td><div><table><tr><td><div>Movimenta\xc3\xa7\xc3\xb5es</div></td></tr><tr><td><div>False</div></td></tr><tr><td><div>/ubercred/form_users</div></td></tr><tr><td><div><table><tr><td><div><table><tr><td><div>Todos</div></td></tr><tr><td><div>False</div></td></tr><tr><td><div>/ubercred/emprestimo2</div></td></tr></table></div></td></tr><tr><td><div><table><tr><td><div>Pendentes</div></td></tr><tr><td><div>False</div></td></tr><tr><td><div>/ubercred/emprestimo</div></td></tr></table></div></td></tr></table></div></td></tr></table></div></td></tr><tr><td><div><table><tr><td><div>Cadastros</div></td></tr><tr><td><div>False</div></td></tr><tr><td><div>/ubercred/form_users</div></td></tr><tr><td><div><table><tr><td><div><table><tr><td><div>Empresas</div></td></tr><tr><td><div>False</div></td></tr><tr><td><div>/ubercred/empresa</div></td></tr></table></div></td></tr><tr><td><div><table><tr><td><div>Status</div></td></tr><tr><td><div>False</div></td></tr><tr><td><div>/ubercred/status</div></td></tr></table></div></td></tr><tr><td><div><table><tr><td><div>Bancos</div></td></tr><tr><td><div>False</div></td></tr><tr><td><div>/ubercred/banco</div></td></tr></table></div></td></tr><tr><td><div><table><tr><td><div>Org\xc3\xa3os</div></td></tr><tr><td><div>False</div></td></tr><tr><td><div>/ubercred/orgao</div></td></tr></table></div></td></tr><tr><td><div><table><tr><td><div>Contratos</div></td></tr><tr><td><div>False</div></td></tr><tr><td><div>/ubercred/funcao</div></td></tr></table></div></td></tr></table></div></td></tr></table></div></td></tr></table></div></td></tr><tr><td style="font-weight:bold;vertical-align:top">menu2</td><td valign="top">:</td><td><div><table><tr><td><div><table><tr><td><div><span class="dropdown-toggle">Login</span></div></td></tr><tr><td><div>False</div></td></tr><tr><td><div>#</div></td></tr><tr><td><div><table><tr><td><div><table><tr><td><div>Usu\xc3\xa1rios</div></td></tr><tr><td><div>False</div></td></tr><tr><td><div>/ubercred/users</div></td></tr></table></div></td></tr><tr><td><div><table><tr><td><div>Logout</div></td></tr><tr><td><div>False</div></td></tr><tr><td><div>/ubercred/user/logout</div></td></tr></table></div></td></tr></table></div></td></tr></table></div></td></tr></table></div></td></tr><tr><td style="font-weight:bold;vertical-align:top">meta</td><td valign="top">:</td><td><div><table><tr><td style="font-weight:bold;vertical-align:top">author</td><td valign="top">:</td><td><div>ForIP</div></td></tr><tr><td style="font-weight:bold;vertical-align:top">description</td><td valign="top">:</td><td><div>Ubercred</div></td></tr><tr><td style="font-weight:bold;vertical-align:top">generator</td><td valign="top">:</td><td><div>Web2py Web Framework</div></td></tr><tr><td style="font-weight:bold;vertical-align:top">keywords</td><td valign="top">:</td><td><div>web2py, python, framework</div></td></tr></table></div></td></tr><tr><td style="font-weight:bold;vertical-align:top">models_to_run</td><td valign="top">:</td><td><div><table><tr><td><div>^\\w+\\.py$</div></td></tr><tr><td><div>^initial/\\w+\\.py$</div></td></tr><tr><td><div>^initial/form_users/\\w+\\.py$</div></td></tr></table></div></td></tr><tr><td style="font-weight:bold;vertical-align:top">postprocessing</td><td valign="top">:</td><td><div><table></table></div></td></tr><tr><td style="font-weight:bold;vertical-align:top">session_cookie_expires</td><td valign="top">:</td><td><div>None</div></td></tr><tr><td style="font-weight:bold;vertical-align:top">session_data_name</td><td valign="top">:</td><td><div>session_data_ubercred</div></td></tr><tr><td style="font-weight:bold;vertical-align:top">session_file</td><td valign="top">:</td><td><div>&lt;open file &#x27;/home/fernado/web2py/tronco/applications/ubercred/sessions/127.0.0.1-37cf0b28-60bd-41a2-8cae-371e7c7ba0f9&#x27;, mode &#x27;rb+&#x27; at 0x7f8670f67660&gt;</div></td></tr><tr><td style="font-weight:bold;vertical-align:top">session_filename</td><td valign="top">:</td><td><div>/home/fernado/web2py/tronco/applications/ubercred/sessions/127.0.0.1-37cf0b28-60bd-41a2-8cae-371e7c7ba0f9</div></td></tr><tr><td style="font-weight:bold;vertical-align:top">session_id</td><td valign="top">:</td><td><div>127.0.0.1-37cf0b28-60bd-41a2-8cae-371e7c7ba0f9</div></td></tr><tr><td style="font-weight:bold;vertical-align:top">session_id_name</td><td valign="top">:</td><td><div>session_id_ubercred</div></td></tr><tr><td style="font-weight:bold;vertical-align:top">session_locked</td><td valign="top">:</td><td><div>True</div></td></tr><tr><td style="font-weight:bold;vertical-align:top">session_new</td><td valign="top">:</td><td><div>False</div></td></tr><tr><td style="font-weight:bold;vertical-align:top">session_storage_type</td><td valign="top">:</td><td><div>file</div></td></tr><tr><td style="font-weight:bold;vertical-align:top">status</td><td valign="top">:</td><td><div>200</div></td></tr><tr><td style="font-weight:bold;vertical-align:top">subtitle</td><td valign="top">:</td><td><div>customize me!</div></td></tr><tr><td style="font-weight:bold;vertical-align:top">title</td><td valign="top">:</td><td><div>Ubercred</div></td></tr><tr><td style="font-weight:bold;vertical-align:top">view</td><td valign="top">:</td><td><div>initial/form_users.html</div></td></tr></table></div>'
tRp157
sS'locals'
p158
(dp159
S'current'
p160
S'<thread._local object>'
p161
sS'how'
p162
S'303'
p163
sS'client_side'
p164
S'False'
p165
sS'location'
p166
S'<function users>'
p167
sssS'traceback'
p168
S'Traceback (most recent call last):\n  File "/home/fernado/web2py/tronco/gluon/restricted.py", line 212, in restricted\n    exec ccode in environment\n  File "/home/fernado/web2py/tronco/applications/ubercred/controllers/initial.py", line 533, in <module>\n  File "/home/fernado/web2py/tronco/gluon/globals.py", line 194, in <lambda>\n    self._caller = lambda f: f()\n  File "/home/fernado/web2py/tronco/applications/ubercred/controllers/initial.py", line 479, in form_users\n    redirect(users)\n  File "/home/fernado/web2py/tronco/gluon/http.py", line 144, in redirect\n    loc = location.replace(\'\\r\', \'%0D\').replace(\'\\n\', \'%0A\')\nAttributeError: \'function\' object has no attribute \'replace\'\n'
p169
s.