(dp1
S'output'
p2
S"<type 'exceptions.TypeError'> 'function' object is not iterable"
p3
sS'layer'
p4
S'/home/fernado/web2py/tronco/applications/ubercred/views/initial/list_orgao.html'
p5
sS'code'
p6
S'response.write(\'<!DOCTYPE html>\\n<!-- paulirish.com/2008/conditional-stylesheets-vs-css-hacks-answer-neither/ -->\\n<!--[if lt IE 7]><html class="ie ie6 ie-lte9 ie-lte8 ie-lte7 no-js" lang="\', escape=False)\nresponse.write(T.accepted_language or \'en\')\nresponse.write(\'"> <![endif]-->\\n<!--[if IE 7]><html class="ie ie7 ie-lte9 ie-lte8 ie-lte7 no-js" lang="\', escape=False)\nresponse.write(T.accepted_language or \'en\')\nresponse.write(\'"> <![endif]-->\\n<!--[if IE 8]><html class="ie ie8 ie-lte9 ie-lte8 no-js" lang="\', escape=False)\nresponse.write(T.accepted_language or \'en\')\nresponse.write(\'"> <![endif]-->\\n<!--[if IE 9]><html class="ie9 ie-lte9 no-js" lang="\', escape=False)\nresponse.write(T.accepted_language or \'en\')\nresponse.write(\'"> <![endif]-->\\n<!--[if (gt IE 9)|!(IE)]><!--> <html class="no-js" lang="\', escape=False)\nresponse.write(T.accepted_language or \'en\')\nresponse.write(\'"> <!--<![endif]-->\\n<head>\\n  <meta charset="utf-8" />\\n  <!-- www.phpied.com/conditional-comments-block-downloads/ -->\\n  <!-- Always force latest IE rendering engine\\n       (even in intranet) & Chrome Frame\\n       Remove thihos if you use the .htaccess -->\\n  <!--[if IE]>\\n      <meta http-equiv="X-UA-Compatible" content="IE=edge\', escape=False)\nresponse.write(not request.is_local and \',chrome=1\' or \'\')\nresponse.write(\'">\\n      <![endif]-->\\n\\n  <title>\', escape=False)\nresponse.write(response.title or request.application)\nresponse.write(\'</title>\\n\\n  <!-- http://dev.w3.org/html5/markup/meta.name.html -->\\n  <meta name="application-name" content="\', escape=False)\nresponse.write(request.application)\nresponse.write(\'" />\\n\\n  <!-- Speaking of Google, don\\\'t forget to set your site up:\\n       http://google.com/webmasters -->\\n  <meta name="google-site-verification" content="" />\\n\\n  <!--  Mobile Viewport Fix\\n        j.mp/mobileviewport & davidbcalhoun.com/2010/viewport-metatag\\n        device-width: Occupy full width of the screen in its current orientation\\n        initial-scale = 1.0 retains dimensions instead of zooming out if page height > device height\\n        user-scalable = yes allows the user to zoom in -->\\n  <meta name="viewport" content="width=device-width, initial-scale=1.0" />\\n\\n  <link rel="shortcut icon" href="\', escape=False)\nresponse.write(URL(\'static\',\'images/favicon.ico\'))\nresponse.write(\'" type="image/x-icon">\\n  <link rel="apple-touch-icon" href="\', escape=False)\nresponse.write(URL(\'static\',\'images/favicon.png\'))\nresponse.write(\'">\\n\\n  <!-- All JavaScript at the bottom, except for Modernizr which enables\\n       HTML5 elements & feature detects -->\\n  <script src="\', escape=False)\nresponse.write(URL(\'static\',\'js/modernizr.custom.js\'))\nresponse.write(\'"></script>\\n\\n  <!-- include stylesheets -->\\n  \', escape=False)\nresponse.files.append(URL(\'static\',\'css/web2py.css\'))\nresponse.files.append(URL(\'static\',\'css/bootstrap.min.css\'))\nresponse.files.append(URL(\'static\',\'css/bootstrap-responsive.min.css\'))\nresponse.files.append(URL(\'static\',\'css/web2py_bootstrap.css\'))\nresponse.write(\'\\n\\n  \', escape=False)\nresponse.write(\'<script type="text/javascript"><!--\\n    // These variables are used by the web2py_ajax_init function in web2py_ajax.js (which is loaded below).\\n    var w2p_ajax_confirm_message = "\', escape=False)\nresponse.write(T(\'Tem certeza que deseja apagar este objeto?\'))\nresponse.write(\'";\\n    var w2p_ajax_date_format = "\', escape=False)\nresponse.write(T(\'%Y-%m-%d\'))\nresponse.write(\'";\\n    var w2p_ajax_datetime_format = "\', escape=False)\nresponse.write(T(\'%Y-%m-%d %H:%M:%S\'))\nresponse.write(\'";\\n    //--></script>\\n\', escape=False)\nresponse.files.insert(0,URL(\'static\',\'js/jquery.js\'))\nresponse.files.insert(1,URL(\'static\',\'css/calendar.css\'))\nresponse.files.insert(2,URL(\'static\',\'js/calendar.js\'))\nresponse.files.insert(3,URL(\'static\',\'js/web2py.js\'))\nresponse.include_meta()\nresponse.include_files()\nresponse.write(\'\\n\', escape=False)\nresponse.write(\'\\n\\n  \', escape=False)\n# using sidebars need to know what sidebar you want to use\nleft_sidebar_enabled = globals().get(\'left_sidebar_enabled\',False)\nright_sidebar_enabled = globals().get(\'right_sidebar_enabled\',False)\nmiddle_columns = {0:\'span12\',1:\'span9\',2:\'span6\'}[\n(left_sidebar_enabled and 1 or 0)+(right_sidebar_enabled and 1 or 0)]\nresponse.write(\'\\n\\n  <!-- uncomment here to load jquery-ui\\n       <link rel="stylesheet" href="http://ajax.googleapis.com/ajax/libs/jqueryui/1.8.16/themes/base/jquery-ui.css" type="text/css" media="all" />\\n       <script src="http://ajax.googleapis.com/ajax/libs/jqueryui/1.8.16/jquery-ui.min.js" type="text/javascript"></script>\\n       uncomment to load jquery-ui //-->\\n  <noscript><link href="\', escape=False)\nresponse.write(URL(\'static\', \'css/web2py_bootstrap_nojs.css\'))\nresponse.write(\'" rel="stylesheet" type="text/css" /></noscript>\\n  \', escape=False)\nresponse.write(\'\\n</head>\\n\\n<body>\\n  <!-- Navbar ================================================== -->\\n  <div class="navbar navbar-inverse navbar-fixed-top">\\n    <div class="flash">\', escape=False)\nresponse.write(response.flash or \'\')\nresponse.write(\'</div>\\n    <div class="navbar-inner">\\n      <div class="container">\\n        <!-- the next tag is necessary for bootstrap menus, do not remove -->\\n        <button type="button" class="btn btn-navbar" data-toggle="collapse" data-target=".nav-collapse">\\n          <span class="icon-bar"></span>\\n          <span class="icon-bar"></span>\\n          <span class="icon-bar"></span>\\n        </button>\\n\\t\', escape=False)\nresponse.write(response.logo or \'\')\nresponse.write(\'\\n       <ul id="navbar" class="nav pull-right">\', escape=False)\nresponse.write(MENU(response.menu2, _class=\'mobile-menu nav\', li_class=\'dropdown\',ul_class=\'dropdown-menu\'))\nresponse.write(\'</ul>\\n        <div class="nav-collapse"><ul class="nav">\\n          \', escape=False)\nis_mobile=request.user_agent().is_mobile\nresponse.write(\'\\n          \', escape=False)\nif response.menu:\n    response.write(\'\\n          \', escape=False)\n    response.write(MENU(response.menu, _class=\'mobile-menu nav\' if is_mobile else \'nav\',mobile=is_mobile,li_class=\'dropdown\',ul_class=\'dropdown-menu\'))\n    response.write(\'\\n          \', escape=False)\n    pass\nresponse.write(\'\\n        </div><!--/.nav-collapse --></ul>\\n      </div>\\n    </div>\\n  </div><!--/top navbar -->\\n\\n  <div class="container">\\n    <!-- Masthead ================================================== -->\\n    <header class="mastheader row" id="header">\\n        <div class="span12">\\n            <div class="page-header">\\n                <h2><!--<img src="\', escape=False)\nresponse.write(URL(\'padrao/static\', \'images\', \'backup.png\'))\nresponse.write(\'">-->\\n                    Sistema\\n                    <small>\', escape=False)\nresponse.write(response.title or \'\')\nresponse.write(\'</small>\\n                </h2>\\n            </div>\\n        </div>\\n    </header>\\n    \', escape=False)\nresponse.write(\'\\n    \', escape=False)\nresponse.write(\'\\n    <section id="main" class="main row">\\n        \', escape=False)\nif left_sidebar_enabled:\n    response.write(\'\\n        <div class="span3 left-sidebar">\\n            \', escape=False)\n    response.write(\'\\n            <h3>Left Sidebar</h3>\\n            <p></p>\\n            \', escape=False)\n    response.write(\'\\n        </div>\\n        \', escape=False)\n    pass\nresponse.write(\'\\n        \\n        <div class="\', escape=False)\nresponse.write(middle_columns)\nresponse.write(\'">\\n            \', escape=False)\nresponse.write(\'\\n\\n<button type="button" class="btn btn-primary" onclick=location.href="\', escape=False)\nresponse.write(URL(a=\'ubercred\', c=\'initial\', f=\'form_orgao\'))\nresponse.write(\'" >Adicionar</button>\\n<table class="table table-striped">\\n    <thead>\\n        <tr>\\n            <th>Org\\xc3\\xa3o</th>\\n            <th>#</th>\\n        </tr>\\n    </thead>\\n    <tbody>\\n    \', escape=False)\nfor dado in orgao:\n    response.write(\'\\n        <tr>\\n            <td width="65%", style="border:1px solid #ADC2CC">\', escape=False)\n    response.write(dado.nome)\n    response.write(\'</td>\\n            <td style="border:1px solid #ADC2CC">\\n                <a href="\', escape=False)\n    response.write(URL(a=\'ubercred\', c=\'initial\', f=\'form_orgao\'))\n    response.write(\'?id_edit=\', escape=False)\n    response.write(dado.id)\n    response.write(\'">\\n                    <i class=" icon-edit"></i></a> &nbsp;&nbsp;\\n\\n                <a class="link" data-tabela="orgao" data-nome="\', escape=False)\n    response.write(dado.nome)\n    response.write(\'" data-value="\', escape=False)\n    response.write(dado.id)\n    response.write(\'" href="#">\\n                    <i class=" icon-trash"></i></a>\\n            </td>\\n        </tr>\\n    \', escape=False)\n    pass\nresponse.write(\'\\n    </tbody>\\n</table>\\n\\n<script>\\nvar links = document.querySelectorAll(\\\'.link\\\');\\nfor (x in links) {\\n    links[x].onclick = function() { \\n    var data_attr = this.dataset;\\n    //alert(data_attr.value);\\n    var id   = data_attr.value;\\n    var nome = data_attr.nome;\\n    var tabela= data_attr.tabela;\\n    decisao = confirm("Tem certeza que deseja remover o item "+nome);\\n        if(decisao){\\n            location.href="\', escape=False)\nresponse.write(URL(a=\'ubercred\', c=\'initial\', f=\'delete\'))\nresponse.write(\'?id_tab="+id+"&tabela="+tabela+";"\\n        }\\n    return false;\\n    }\\n}\\n</script>\\n\\n\', escape=False)\nresponse.write(\'\\n        </div>\\n\\n        \', escape=False)\nif right_sidebar_enabled:\n    response.write(\'\\n        <div class="span3">\\n            \', escape=False)\n    response.write(\'\\n            <h3>Right Sidebar</h3>\\n            <p></p>\\n            \', escape=False)\n    response.write(\'\\n        </div>\\n        \', escape=False)\n    pass\nresponse.write(\'\\n    </section><!--/main-->\\n\\n    <!-- Footer ================================================== -->\\n    <div class="row">\\n        <footer class="footer span12" id="footer">\\n            <div class="footer-content">\\n                \', escape=False)\nresponse.write(\' <!-- this is default footer -->\\n                <div class="copyright pull-left">\', escape=False)\nresponse.write(T(\'Copyright\'))\nresponse.write(\' &#169; \', escape=False)\nresponse.write(request.now.year)\nresponse.write(\'</div>\\n                <div id="poweredBy" class="pull-right">\\n                    \', escape=False)\nresponse.write(T(\'Desenvolvido por\'))\nresponse.write(\'\\n                    <a href="http://www.aldeiadigital.com.br/">ForIP</a>\\n                </div>\\n                \', escape=False)\nresponse.write(\'\\n            </div>\\n        </footer>\\n    </div>\\n\\n  </div> <!-- /container -->\\n\\n  <!-- The javascript =============================================\\n       (Placed at the end of the document so the pages load faster) -->\\n  <script src="\', escape=False)\nresponse.write(URL(\'static\',\'js/bootstrap.min.js\'))\nresponse.write(\'"></script>\\n  <script src="\', escape=False)\nresponse.write(URL(\'static\',\'js/web2py_bootstrap.js\'))\nresponse.write(\'"></script>\\n  <!--[if lt IE 7 ]>\\n      <script src="\', escape=False)\nresponse.write(URL(\'static\',\'js/dd_belatedpng.js\'))\nresponse.write(\'"></script>\\n      <script> DD_belatedPNG.fix(\\\'img, .png_bg\\\'); //fix any <img> or .png_bg background-images </script>\\n      <![endif]-->\\n  \\n  \', escape=False)\nif response.google_analytics_id:\n    response.write(\'\\n  <script src="\', escape=False)\n    response.write(URL(\'static\',\'js/analytics.js\'))\n    response.write(\'"></script>\\n  <script type="text/javascript">\\n  analytics.initialize({\\n    \\\'Google Analytics\\\':{trackingId:\\\'\', escape=False)\n    response.write(response.google_analytics_id)\n    response.write("\'} \\n  });</script>\\n  ", escape=False)\n    pass\nresponse.write(\'\\n  <!--<script src="\', escape=False)\nresponse.write(URL(\'static\',\'js/share.js\',vars=dict(static=URL(\'static\',\'images\'))))\nresponse.write(\'"></script>-->\\n</body>\\n</html>\\n\', escape=False)'
p7
sS'snapshot'
p8
(dp9
S'exception'
p10
(dp11
S'__hash__'
p12
S"<method-wrapper '__hash__' of exceptions.TypeError object>"
p13
sS'__setattr__'
p14
S"<method-wrapper '__setattr__' of exceptions.TypeError object>"
p15
sS'__reduce_ex__'
p16
S'<built-in method __reduce_ex__ of exceptions.TypeError object>'
p17
sS'__getslice__'
p18
S"<method-wrapper '__getslice__' of exceptions.TypeError object>"
p19
sS'__getitem__'
p20
S"<method-wrapper '__getitem__' of exceptions.TypeError object>"
p21
sS'__setstate__'
p22
S'<built-in method __setstate__ of exceptions.TypeError object>'
p23
sS'args'
p24
S'("\'function\' object is not iterable",)'
p25
sS'__reduce__'
p26
S'<built-in method __reduce__ of exceptions.TypeError object>'
p27
sS'__str__'
p28
S"<method-wrapper '__str__' of exceptions.TypeError object>"
p29
sS'__format__'
p30
S'<built-in method __format__ of exceptions.TypeError object>'
p31
sS'__getattribute__'
p32
S"<method-wrapper '__getattribute__' of exceptions.TypeError object>"
p33
sS'__class__'
p34
S"<type 'exceptions.TypeError'>"
p35
sS'__unicode__'
p36
S'<built-in method __unicode__ of exceptions.TypeError object>'
p37
sS'__delattr__'
p38
S"<method-wrapper '__delattr__' of exceptions.TypeError object>"
p39
sS'__subclasshook__'
p40
S'<built-in method __subclasshook__ of type object>'
p41
sS'__repr__'
p42
S"<method-wrapper '__repr__' of exceptions.TypeError object>"
p43
sS'__dict__'
p44
S'{}'
p45
sS'__sizeof__'
p46
S'<built-in method __sizeof__ of exceptions.TypeError object>'
p47
sS'__doc__'
p48
S"'Inappropriate argument type.'"
p49
sS'__init__'
p50
S"<method-wrapper '__init__' of exceptions.TypeError object>"
p51
sS'__new__'
p52
S'<built-in method __new__ of type object>'
p53
ssS'evalue'
p54
S"'function' object is not iterable"
p55
sS'request'
p56
cgluon.html
XML_unpickle
p57
(S's\xd1M\x00\x00<div><table><tr><td style="font-weight:bold;vertical-align:top">ajax</td><td valign="top">:</td><td><div>False</div></td></tr><tr><td style="font-weight:bold;vertical-align:top">application</td><td valign="top">:</td><td><div>ubercred</div></td></tr><tr><td style="font-weight:bold;vertical-align:top">args</td><td valign="top">:</td><td><div><table></table></div></td></tr><tr><td style="font-weight:bold;vertical-align:top">body</td><td valign="top">:</td><td><div>&lt;cStringIO.StringO object at 0x7f3f7c137848&gt;</div></td></tr><tr><td style="font-weight:bold;vertical-align:top">cid</td><td valign="top">:</td><td><div>None</div></td></tr><tr><td style="font-weight:bold;vertical-align:top">client</td><td valign="top">:</td><td><div>127.0.0.1</div></td></tr><tr><td style="font-weight:bold;vertical-align:top">controller</td><td valign="top">:</td><td><div>initial</div></td></tr><tr><td style="font-weight:bold;vertical-align:top">cookies</td><td valign="top">:</td><td><div><table><tr><td style="font-weight:bold;vertical-align:top">session_id_admin</td><td valign="top">:</td><td><div>127.0.0.1-af33a4fc-73af-40fa-ac20-220e05eb80d0<table><tr><td style="font-weight:bold;vertical-align:top">comment</td><td valign="top">:</td><td><div></div></td></tr><tr><td style="font-weight:bold;vertical-align:top">domain</td><td valign="top">:</td><td><div></div></td></tr><tr><td style="font-weight:bold;vertical-align:top">expires</td><td valign="top">:</td><td><div></div></td></tr><tr><td style="font-weight:bold;vertical-align:top">httponly</td><td valign="top">:</td><td><div></div></td></tr><tr><td style="font-weight:bold;vertical-align:top">max-age</td><td valign="top">:</td><td><div></div></td></tr><tr><td style="font-weight:bold;vertical-align:top">path</td><td valign="top">:</td><td><div></div></td></tr><tr><td style="font-weight:bold;vertical-align:top">secure</td><td valign="top">:</td><td><div></div></td></tr><tr><td style="font-weight:bold;vertical-align:top">version</td><td valign="top">:</td><td><div></div></td></tr></table></div></td></tr><tr><td style="font-weight:bold;vertical-align:top">session_id_ubercred</td><td valign="top">:</td><td><div>127.0.0.1-4da967e0-009a-4ba8-96e1-0c6e5d1da34a<table><tr><td style="font-weight:bold;vertical-align:top">comment</td><td valign="top">:</td><td><div></div></td></tr><tr><td style="font-weight:bold;vertical-align:top">domain</td><td valign="top">:</td><td><div></div></td></tr><tr><td style="font-weight:bold;vertical-align:top">expires</td><td valign="top">:</td><td><div></div></td></tr><tr><td style="font-weight:bold;vertical-align:top">httponly</td><td valign="top">:</td><td><div></div></td></tr><tr><td style="font-weight:bold;vertical-align:top">max-age</td><td valign="top">:</td><td><div></div></td></tr><tr><td style="font-weight:bold;vertical-align:top">path</td><td valign="top">:</td><td><div></div></td></tr><tr><td style="font-weight:bold;vertical-align:top">secure</td><td valign="top">:</td><td><div></div></td></tr><tr><td style="font-weight:bold;vertical-align:top">version</td><td valign="top">:</td><td><div></div></td></tr></table></div></td></tr></table></div></td></tr><tr><td style="font-weight:bold;vertical-align:top">env</td><td valign="top">:</td><td><div><table><tr><td style="font-weight:bold;vertical-align:top">app_folders</td><td valign="top">:</td><td><div>set([&#x27;/home/fernado/web2py/tronco/applications/ubercred/&#x27;, &#x27;/home/fernado/web2py/tronco/applications/admin/&#x27;])</div></td></tr><tr><td style="font-weight:bold;vertical-align:top">applications_parent</td><td valign="top">:</td><td><div>/home/fernado/web2py/tronco</div></td></tr><tr><td style="font-weight:bold;vertical-align:top">cmd_args</td><td valign="top">:</td><td><div><table></table></div></td></tr><tr><td style="font-weight:bold;vertical-align:top">cmd_options</td><td valign="top">:</td><td><div>&lt;Values at 0x3076290: {&#x27;verbose&#x27;: False, &#x27;ip&#x27;: &#x27;127.0.0.1&#x27;, &#x27;with_scheduler&#x27;: False, &#x27;ips&#x27;: [], &#x27;shutdown_timeout&#x27;: 5, &#x27;taskbar&#x27;: False, &#x27;with_coverage&#x27;: False, &#x27;port&#x27;: 8000, &#x27;maxthreads&#x27;: None, &#x27;softcron&#x27;: False, &#x27;server_name&#x27;: &#x27;fernando-workstation&#x27;, &#x27;bpython&#x27;: False, &#x27;nogui&#x27;: False, &#x27;pid_filename&#x27;: &#x27;httpserver.pid&#x27;, &#x27;extcron&#x27;: False, &#x27;runcron&#x27;: False, &#x27;run_system_tests&#x27;: False, &#x27;test&#x27;: None, &#x27;folder&#x27;: &#x27;/home/fernado/web2py/tronco&#x27;, &#x27;config&#x27;: &#x27;&#x27;, &#x27;minthreads&#x27;: None, &#x27;winservice&#x27;: &#x27;&#x27;, &#x27;shell&#x27;: None, &#x27;run&#x27;: &#x27;&#x27;, &#x27;log_filename&#x27;: &#x27;httpserver.log&#x27;, &#x27;debuglevel&#x27;: 30, &#x27;args&#x27;: [&#x27;&#x27;], &#x27;socket_timeout&#x27;: 5, &#x27;ssl_ca_certificate&#x27;: None, &#x27;scheduler&#x27;: None, &#x27;profiler_filename&#x27;: None, &#x27;ssl_private_key&#x27;: &#x27;&#x27;, &#x27;scheduler_groups&#x27;: None, &#x27;password&#x27;: &#x27;123456&#x27;, &#x27;request_queue_size&#x27;: 5, &#x27;ssl_certificate&#x27;: &#x27;&#x27;, &#x27;cronjob&#x27;: False, &#x27;numthreads&#x27;: None, &#x27;quiet&#x27;: False, &#x27;interfaces&#x27;: None, &#x27;import_models&#x27;: False, &#x27;timeout&#x27;: 10, &#x27;plain&#x27;: False, &#x27;nobanner&#x27;: False}&gt;</div></td></tr><tr><td style="font-weight:bold;vertical-align:top">db_sessions</td><td valign="top">:</td><td><div>set([])</div></td></tr><tr><td style="font-weight:bold;vertical-align:top">debugging</td><td valign="top">:</td><td><div>False</div></td></tr><tr><td style="font-weight:bold;vertical-align:top">gluon_parent</td><td valign="top">:</td><td><div>/home/fernado/web2py/tronco</div></td></tr><tr><td style="font-weight:bold;vertical-align:top">http_accept</td><td valign="top">:</td><td><div>text/html,application/xhtml+xml,application/xml;q=0.9,image/webp,*/*;q=0.8</div></td></tr><tr><td style="font-weight:bold;vertical-align:top">http_accept_encoding</td><td valign="top">:</td><td><div>gzip,deflate,sdch</div></td></tr><tr><td style="font-weight:bold;vertical-align:top">http_accept_language</td><td valign="top">:</td><td><div>pt-BR,pt;q=0.8,en-US;q=0.6,en;q=0.4</div></td></tr><tr><td style="font-weight:bold;vertical-align:top">http_connection</td><td valign="top">:</td><td><div>keep-alive</div></td></tr><tr><td style="font-weight:bold;vertical-align:top">http_cookie</td><td valign="top">:</td><td><div>session_id_admin=127.0.0.1-af33a4fc-73af-40fa-ac20-220e05eb80d0; session_id_ubercred=127.0.0.1-4da967e0-009a-4ba8-96e1-0c6e5d1da34a</div></td></tr><tr><td style="font-weight:bold;vertical-align:top">http_host</td><td valign="top">:</td><td><div>127.0.0.1:8000</div></td></tr><tr><td style="font-weight:bold;vertical-align:top">http_user_agent</td><td valign="top">:</td><td><div>Mozilla/5.0 (X11; Linux x86_64) AppleWebKit/537.36 (KHTML, like Gecko) Chrome/30.0.1599.114 Safari/537.36</div></td></tr><tr><td style="font-weight:bold;vertical-align:top">is_jython</td><td valign="top">:</td><td><div>False</div></td></tr><tr><td style="font-weight:bold;vertical-align:top">is_pypy</td><td valign="top">:</td><td><div>False</div></td></tr><tr><td style="font-weight:bold;vertical-align:top">local_hosts</td><td valign="top">:</td><td><div><table><tr><td><div>::1</div></td></tr><tr><td><div>::ffff:127.0.0.1</div></td></tr><tr><td><div>127.0.0.1</div></td></tr><tr><td><div>fernando-workstation</div></td></tr></table></div></td></tr><tr><td style="font-weight:bold;vertical-align:top">path_info</td><td valign="top">:</td><td><div>/ubercred/orgao</div></td></tr><tr><td style="font-weight:bold;vertical-align:top">query_string</td><td valign="top">:</td><td><div></div></td></tr><tr><td style="font-weight:bold;vertical-align:top">remote_addr</td><td valign="top">:</td><td><div>127.0.0.1</div></td></tr><tr><td style="font-weight:bold;vertical-align:top">remote_port</td><td valign="top">:</td><td><div>32936</div></td></tr><tr><td style="font-weight:bold;vertical-align:top">request_method</td><td valign="top">:</td><td><div>GET</div></td></tr><tr><td style="font-weight:bold;vertical-align:top">request_uri</td><td valign="top">:</td><td><div>/ubercred/initial/orgao</div></td></tr><tr><td style="font-weight:bold;vertical-align:top">script_name</td><td valign="top">:</td><td><div></div></td></tr><tr><td style="font-weight:bold;vertical-align:top">server_name</td><td valign="top">:</td><td><div>fernando-workstation</div></td></tr><tr><td style="font-weight:bold;vertical-align:top">server_port</td><td valign="top">:</td><td><div>8000</div></td></tr><tr><td style="font-weight:bold;vertical-align:top">server_protocol</td><td valign="top">:</td><td><div>HTTP/1.1</div></td></tr><tr><td style="font-weight:bold;vertical-align:top">server_software</td><td valign="top">:</td><td><div>Rocket 1.2.6</div></td></tr><tr><td style="font-weight:bold;vertical-align:top">web2py_original_uri</td><td valign="top">:</td><td><div>/ubercred/orgao</div></td></tr><tr><td style="font-weight:bold;vertical-align:top">web2py_path</td><td valign="top">:</td><td><div>/home/fernado/web2py/tronco</div></td></tr><tr><td style="font-weight:bold;vertical-align:top">web2py_version</td><td valign="top">:</td><td><div>2.5.1-stable+timestamp.2013.06.06.15.39.19</div></td></tr><tr><td style="font-weight:bold;vertical-align:top">wsgi_errors</td><td valign="top">:</td><td><div>&lt;open file &#x27;&lt;stderr&gt;&#x27;, mode &#x27;w&#x27; at 0x7f3f9ef44270&gt;</div></td></tr><tr><td style="font-weight:bold;vertical-align:top">wsgi_file_wrapper</td><td valign="top">:</td><td><div>&lt;class wsgiref.util.FileWrapper at 0x2fcad50&gt;</div></td></tr><tr><td style="font-weight:bold;vertical-align:top">wsgi_input</td><td valign="top">:</td><td><div>&lt;socket._fileobject object at 0x7f3f7c13df50&gt;</div></td></tr><tr><td style="font-weight:bold;vertical-align:top">wsgi_multiprocess</td><td valign="top">:</td><td><div>False</div></td></tr><tr><td style="font-weight:bold;vertical-align:top">wsgi_multithread</td><td valign="top">:</td><td><div>True</div></td></tr><tr><td style="font-weight:bold;vertical-align:top">wsgi_run_once</td><td valign="top">:</td><td><div>False</div></td></tr><tr><td style="font-weight:bold;vertical-align:top">wsgi_url_scheme</td><td valign="top">:</td><td><div>http</div></td></tr><tr><td style="font-weight:bold;vertical-align:top">wsgi_version</td><td valign="top">:</td><td><div><table><tr><td><div>1</div></td></tr><tr><td><div>0</div></td></tr></table></div></td></tr></table></div></td></tr><tr><td style="font-weight:bold;vertical-align:top">extension</td><td valign="top">:</td><td><div>html</div></td></tr><tr><td style="font-weight:bold;vertical-align:top">folder</td><td valign="top">:</td><td><div>/home/fernado/web2py/tronco/applications/ubercred/</div></td></tr><tr><td style="font-weight:bold;vertical-align:top">function</td><td valign="top">:</td><td><div>orgao</div></td></tr><tr><td style="font-weight:bold;vertical-align:top">get_vars</td><td valign="top">:</td><td><div><table></table></div></td></tr><tr><td style="font-weight:bold;vertical-align:top">global_settings</td><td valign="top">:</td><td><div><table><tr><td style="font-weight:bold;vertical-align:top">app_folders</td><td valign="top">:</td><td><div>set([&#x27;/home/fernado/web2py/tronco/applications/ubercred/&#x27;, &#x27;/home/fernado/web2py/tronco/applications/admin/&#x27;])</div></td></tr><tr><td style="font-weight:bold;vertical-align:top">applications_parent</td><td valign="top">:</td><td><div>/home/fernado/web2py/tronco</div></td></tr><tr><td style="font-weight:bold;vertical-align:top">cmd_args</td><td valign="top">:</td><td><div><table></table></div></td></tr><tr><td style="font-weight:bold;vertical-align:top">cmd_options</td><td valign="top">:</td><td><div>&lt;Values at 0x3076290: {&#x27;verbose&#x27;: False, &#x27;ip&#x27;: &#x27;127.0.0.1&#x27;, &#x27;with_scheduler&#x27;: False, &#x27;ips&#x27;: [], &#x27;shutdown_timeout&#x27;: 5, &#x27;taskbar&#x27;: False, &#x27;with_coverage&#x27;: False, &#x27;port&#x27;: 8000, &#x27;maxthreads&#x27;: None, &#x27;softcron&#x27;: False, &#x27;server_name&#x27;: &#x27;fernando-workstation&#x27;, &#x27;bpython&#x27;: False, &#x27;nogui&#x27;: False, &#x27;pid_filename&#x27;: &#x27;httpserver.pid&#x27;, &#x27;extcron&#x27;: False, &#x27;runcron&#x27;: False, &#x27;run_system_tests&#x27;: False, &#x27;test&#x27;: None, &#x27;folder&#x27;: &#x27;/home/fernado/web2py/tronco&#x27;, &#x27;config&#x27;: &#x27;&#x27;, &#x27;minthreads&#x27;: None, &#x27;winservice&#x27;: &#x27;&#x27;, &#x27;shell&#x27;: None, &#x27;run&#x27;: &#x27;&#x27;, &#x27;log_filename&#x27;: &#x27;httpserver.log&#x27;, &#x27;debuglevel&#x27;: 30, &#x27;args&#x27;: [&#x27;&#x27;], &#x27;socket_timeout&#x27;: 5, &#x27;ssl_ca_certificate&#x27;: None, &#x27;scheduler&#x27;: None, &#x27;profiler_filename&#x27;: None, &#x27;ssl_private_key&#x27;: &#x27;&#x27;, &#x27;scheduler_groups&#x27;: None, &#x27;password&#x27;: &#x27;123456&#x27;, &#x27;request_queue_size&#x27;: 5, &#x27;ssl_certificate&#x27;: &#x27;&#x27;, &#x27;cronjob&#x27;: False, &#x27;numthreads&#x27;: None, &#x27;quiet&#x27;: False, &#x27;interfaces&#x27;: None, &#x27;import_models&#x27;: False, &#x27;timeout&#x27;: 10, &#x27;plain&#x27;: False, &#x27;nobanner&#x27;: False}&gt;</div></td></tr><tr><td style="font-weight:bold;vertical-align:top">db_sessions</td><td valign="top">:</td><td><div>set([])</div></td></tr><tr><td style="font-weight:bold;vertical-align:top">debugging</td><td valign="top">:</td><td><div>False</div></td></tr><tr><td style="font-weight:bold;vertical-align:top">gluon_parent</td><td valign="top">:</td><td><div>/home/fernado/web2py/tronco</div></td></tr><tr><td style="font-weight:bold;vertical-align:top">is_jython</td><td valign="top">:</td><td><div>False</div></td></tr><tr><td style="font-weight:bold;vertical-align:top">is_pypy</td><td valign="top">:</td><td><div>False</div></td></tr><tr><td style="font-weight:bold;vertical-align:top">local_hosts</td><td valign="top">:</td><td><div><table><tr><td><div>::1</div></td></tr><tr><td><div>::ffff:127.0.0.1</div></td></tr><tr><td><div>127.0.0.1</div></td></tr><tr><td><div>fernando-workstation</div></td></tr></table></div></td></tr><tr><td style="font-weight:bold;vertical-align:top">web2py_version</td><td valign="top">:</td><td><div>2.5.1-stable+timestamp.2013.06.06.15.39.19</div></td></tr></table></div></td></tr><tr><td style="font-weight:bold;vertical-align:top">is_https</td><td valign="top">:</td><td><div>False</div></td></tr><tr><td style="font-weight:bold;vertical-align:top">is_local</td><td valign="top">:</td><td><div>True</div></td></tr><tr><td style="font-weight:bold;vertical-align:top">is_restful</td><td valign="top">:</td><td><div>False</div></td></tr><tr><td style="font-weight:bold;vertical-align:top">now</td><td valign="top">:</td><td><div>datetime.datetime(2014, 4, 14, 16, 1, 10, 463280)</div></td></tr><tr><td style="font-weight:bold;vertical-align:top">post_vars</td><td valign="top">:</td><td><div><table></table></div></td></tr><tr><td style="font-weight:bold;vertical-align:top">url</td><td valign="top">:</td><td><div>/ubercred/orgao</div></td></tr><tr><td style="font-weight:bold;vertical-align:top">utcnow</td><td valign="top">:</td><td><div>datetime.datetime(2014, 4, 14, 19, 1, 10, 463331)</div></td></tr><tr><td style="font-weight:bold;vertical-align:top">uuid</td><td valign="top">:</td><td><div>ubercred/127.0.0.1.2014-04-14.16-01-10.563189bc-f4be-41eb-9918-f2dc854c3d68</div></td></tr><tr><td style="font-weight:bold;vertical-align:top">vars</td><td valign="top">:</td><td><div><table></table></div></td></tr><tr><td style="font-weight:bold;vertical-align:top">wsgi</td><td valign="top">:</td><td><div><table><tr><td style="font-weight:bold;vertical-align:top">environ</td><td valign="top">:</td><td><div><table><tr><td style="font-weight:bold;vertical-align:top">HTTP_ACCEPT</td><td valign="top">:</td><td><div>text/html,application/xhtml+xml,application/xml;q=0.9,image/webp,*/*;q=0.8</div></td></tr><tr><td style="font-weight:bold;vertical-align:top">HTTP_ACCEPT_ENCODING</td><td valign="top">:</td><td><div>gzip,deflate,sdch</div></td></tr><tr><td style="font-weight:bold;vertical-align:top">HTTP_ACCEPT_LANGUAGE</td><td valign="top">:</td><td><div>pt-BR,pt;q=0.8,en-US;q=0.6,en;q=0.4</div></td></tr><tr><td style="font-weight:bold;vertical-align:top">HTTP_CONNECTION</td><td valign="top">:</td><td><div>keep-alive</div></td></tr><tr><td style="font-weight:bold;vertical-align:top">HTTP_COOKIE</td><td valign="top">:</td><td><div>session_id_admin=127.0.0.1-af33a4fc-73af-40fa-ac20-220e05eb80d0; session_id_ubercred=127.0.0.1-4da967e0-009a-4ba8-96e1-0c6e5d1da34a</div></td></tr><tr><td style="font-weight:bold;vertical-align:top">HTTP_HOST</td><td valign="top">:</td><td><div>127.0.0.1:8000</div></td></tr><tr><td style="font-weight:bold;vertical-align:top">HTTP_USER_AGENT</td><td valign="top">:</td><td><div>Mozilla/5.0 (X11; Linux x86_64) AppleWebKit/537.36 (KHTML, like Gecko) Chrome/30.0.1599.114 Safari/537.36</div></td></tr><tr><td style="font-weight:bold;vertical-align:top">PATH_INFO</td><td valign="top">:</td><td><div>/ubercred/orgao</div></td></tr><tr><td style="font-weight:bold;vertical-align:top">QUERY_STRING</td><td valign="top">:</td><td><div></div></td></tr><tr><td style="font-weight:bold;vertical-align:top">REMOTE_ADDR</td><td valign="top">:</td><td><div>127.0.0.1</div></td></tr><tr><td style="font-weight:bold;vertical-align:top">REMOTE_PORT</td><td valign="top">:</td><td><div>32936</div></td></tr><tr><td style="font-weight:bold;vertical-align:top">REQUEST_METHOD</td><td valign="top">:</td><td><div>GET</div></td></tr><tr><td style="font-weight:bold;vertical-align:top">REQUEST_URI</td><td valign="top">:</td><td><div>/ubercred/initial/orgao</div></td></tr><tr><td style="font-weight:bold;vertical-align:top">SCRIPT_NAME</td><td valign="top">:</td><td><div></div></td></tr><tr><td style="font-weight:bold;vertical-align:top">SERVER_NAME</td><td valign="top">:</td><td><div>fernando-workstation</div></td></tr><tr><td style="font-weight:bold;vertical-align:top">SERVER_PORT</td><td valign="top">:</td><td><div>8000</div></td></tr><tr><td style="font-weight:bold;vertical-align:top">SERVER_PROTOCOL</td><td valign="top">:</td><td><div>HTTP/1.1</div></td></tr><tr><td style="font-weight:bold;vertical-align:top">SERVER_SOFTWARE</td><td valign="top">:</td><td><div>Rocket 1.2.6</div></td></tr><tr><td style="font-weight:bold;vertical-align:top">WEB2PY_ORIGINAL_URI</td><td valign="top">:</td><td><div>/ubercred/orgao</div></td></tr><tr><td style="font-weight:bold;vertical-align:top">wsgi.errors</td><td valign="top">:</td><td><div>&lt;open file &#x27;&lt;stderr&gt;&#x27;, mode &#x27;w&#x27; at 0x7f3f9ef44270&gt;</div></td></tr><tr><td style="font-weight:bold;vertical-align:top">wsgi.file_wrapper</td><td valign="top">:</td><td><div>&lt;class wsgiref.util.FileWrapper at 0x2fcad50&gt;</div></td></tr><tr><td style="font-weight:bold;vertical-align:top">wsgi.input</td><td valign="top">:</td><td><div>&lt;cStringIO.StringO object at 0x7f3f7c137848&gt;</div></td></tr><tr><td style="font-weight:bold;vertical-align:top">wsgi.multiprocess</td><td valign="top">:</td><td><div>False</div></td></tr><tr><td style="font-weight:bold;vertical-align:top">wsgi.multithread</td><td valign="top">:</td><td><div>True</div></td></tr><tr><td style="font-weight:bold;vertical-align:top">wsgi.run_once</td><td valign="top">:</td><td><div>False</div></td></tr><tr><td style="font-weight:bold;vertical-align:top">wsgi.url_scheme</td><td valign="top">:</td><td><div>http</div></td></tr><tr><td style="font-weight:bold;vertical-align:top">wsgi.version</td><td valign="top">:</td><td><div>1</div></td></tr></table></div></td></tr></table></div></td></tr></table></div>'
tRp58
sS'frames'
p59
(lp60
(dp61
S'file'
p62
S'/home/fernado/web2py/tronco/gluon/restricted.py'
p63
sS'dump'
p64
(dp65
S'environment'
p66
S"{'A': <class 'gluon.html.A'>, 'ANY_OF': <class 'gluon.validators.ANY_OF'>, 'Auth': <class 'gluon.tools.Auth'>, 'B': <class 'gluon.html.B'>, 'BEAUTIFY': <class 'gluon.html.BEAUTIFY'>, 'BODY': <class 'gluon.html.BODY'>, 'BR': <class 'gluon.html.BR'>, 'BUTTON': <class 'gluon.html.BUTTON'>, 'CAT': <class 'gluon.html.CAT'>, 'CENTER': <class 'gluon.html.CENTER'>, ...}"
p67
sS'ccode'
p68
S'<code object <module> at 0x7f3f8022fab0, file "/.../ubercred/views/initial/list_orgao.html", line 1>'
p69
ssS'lnum'
p70
I212
sS'lines'
p71
(dp72
I207
S'    try:'
p73
sI208
S'        if isinstance(code, types.CodeType):'
p74
sI209
S'            ccode = code'
p75
sI210
S'        else:'
p76
sI211
S'            ccode = compile2(code, layer)'
p77
sI212
S'        exec ccode in environment'
p78
sI213
S'    except HTTP:'
p79
sI214
S'        raise'
p80
sI215
S'    except RestrictedError:'
p81
sI216
S'        # do not encapsulate (obfuscate) the original RestrictedError'
p82
ssS'call'
p83
S'(code=r"response.write(\'<!DOCTYPE html>\\n<!-- paulirish....></script>-->\\n</body>\\n</html>\\n\', escape=False)", environment={\'A\': <class \'gluon.html.A\'>, \'ANY_OF\': <class \'gluon.validators.ANY_OF\'>, \'Auth\': <class \'gluon.tools.Auth\'>, \'B\': <class \'gluon.html.B\'>, \'BEAUTIFY\': <class \'gluon.html.BEAUTIFY\'>, \'BODY\': <class \'gluon.html.BODY\'>, \'BR\': <class \'gluon.html.BR\'>, \'BUTTON\': <class \'gluon.html.BUTTON\'>, \'CAT\': <class \'gluon.html.CAT\'>, \'CENTER\': <class \'gluon.html.CENTER\'>, ...}, layer=\'/home/fernado/web2py/tronco/applications/ubercred/views/initial/list_orgao.html\')'
p84
sS'func'
p85
S'restricted'
p86
sa(dp87
g62
S'/home/fernado/web2py/tronco/applications/ubercred/views/initial/list_orgao.html'
p88
sg64
(dp89
sg70
I84
sg71
(dp90
I75
S"    response.write('\\n            <h3>Left Sidebar</h3>\\n            <p></p>\\n            ', escape=False)"
p91
sI76
S"    response.write('\\n        </div>\\n        ', escape=False)"
p92
sI77
S'    pass'
p93
sI78
S'response.write(\'\\n        \\n        <div class="\', escape=False)'
p94
sI79
S'response.write(middle_columns)'
p95
sI80
S'response.write(\'">\\n            \', escape=False)'
p96
sI81
S'response.write(\'\\n\\n<button type="button" class="btn btn-primary" onclick=location.href="\', escape=False)'
p97
sI82
S"response.write(URL(a='ubercred', c='initial', f='form_orgao'))"
p98
sI83
S'response.write(\'" >Adicionar</button>\\n<table class="table table-striped">\\n    <thead>\\n        <tr>\\n            <th>Org\\xc3\\xa3o</th>\\n            <th>#</th>\\n        </tr>\\n    </thead>\\n    <tbody>\\n    \', escape=False)'
p99
sI84
S'for dado in orgao:'
p100
sI85
S'    response.write(\'\\n        <tr>\\n            <td width="65%", style="border:1px solid #ADC2CC">\', escape=False)'
p101
sI86
S'    response.write(dado.nome)'
p102
sI87
S'    response.write(\'</td>\\n            <td style="border:1px solid #ADC2CC">\\n                <a href="\', escape=False)'
p103
sI88
S"    response.write(URL(a='ubercred', c='initial', f='form_orgao'))"
p104
sI89
S"    response.write('?id_edit=', escape=False)"
p105
sI90
S'    response.write(dado.id)'
p106
sI91
S'    response.write(\'">\\n                    <i class=" icon-edit"></i></a> &nbsp;&nbsp;\\n\\n                <a class="link" data-tabela="orgao" data-nome="\', escape=False)'
p107
sI92
S'    response.write(dado.nome)'
p108
sI93
S'    response.write(\'" data-value="\', escape=False)'
p109
sI94
S'    response.write(dado.id)'
p110
ssg83
S'()'
p111
sg85
S'<module>'
p112
sasS'pyver'
p113
S'Python 2.7.3: /usr/bin/python (prefix: /usr)'
p114
sS'session'
p115
g57
(S's\xac\n\x00\x00<div><table><tr><td style="font-weight:bold;vertical-align:top">auth</td><td valign="top">:</td><td><div><table><tr><td style="font-weight:bold;vertical-align:top">expiration</td><td valign="top">:</td><td><div>3600</div></td></tr><tr><td style="font-weight:bold;vertical-align:top">hmac_key</td><td valign="top">:</td><td><div>a3b1a8b5-be06-420f-8305-facdcbbedb20</div></td></tr><tr><td style="font-weight:bold;vertical-align:top">last_visit</td><td valign="top">:</td><td><div>datetime.datetime(2014, 4, 14, 16, 1, 10, 463280)</div></td></tr><tr><td style="font-weight:bold;vertical-align:top">remember</td><td valign="top">:</td><td><div>False</div></td></tr><tr><td style="font-weight:bold;vertical-align:top">user</td><td valign="top">:</td><td><div><table><tr><td style="font-weight:bold;vertical-align:top">email</td><td valign="top">:</td><td><div>admin@admin.com</div></td></tr><tr><td style="font-weight:bold;vertical-align:top">first_name</td><td valign="top">:</td><td><div>admin</div></td></tr><tr><td style="font-weight:bold;vertical-align:top">funcao</td><td valign="top">:</td><td><div>admin</div></td></tr><tr><td style="font-weight:bold;vertical-align:top">id</td><td valign="top">:</td><td><div>1L</div></td></tr><tr><td style="font-weight:bold;vertical-align:top">id_empresa</td><td valign="top">:</td><td><div>1L</div></td></tr><tr><td style="font-weight:bold;vertical-align:top">last_name</td><td valign="top">:</td><td><div>admin</div></td></tr><tr><td style="font-weight:bold;vertical-align:top">lembrete</td><td valign="top">:</td><td><div></div></td></tr><tr><td style="font-weight:bold;vertical-align:top">registration_id</td><td valign="top">:</td><td><div></div></td></tr><tr><td style="font-weight:bold;vertical-align:top">registration_key</td><td valign="top">:</td><td><div></div></td></tr><tr><td style="font-weight:bold;vertical-align:top">reset_password_key</td><td valign="top">:</td><td><div></div></td></tr><tr><td style="font-weight:bold;vertical-align:top">supervisor</td><td valign="top">:</td><td><div></div></td></tr><tr><td style="font-weight:bold;vertical-align:top">username</td><td valign="top">:</td><td><div>admin</div></td></tr></table></div></td></tr><tr><td style="font-weight:bold;vertical-align:top">user_groups</td><td valign="top">:</td><td><div><table><tr><td style="font-weight:bold;vertical-align:top">3</td><td valign="top">:</td><td><div>admin</div></td></tr></table></div></td></tr></table></div></td></tr><tr><td style="font-weight:bold;vertical-align:top">flash</td><td valign="top">:</td><td><div>None</div></td></tr><tr><td style="font-weight:bold;vertical-align:top">raiz</td><td valign="top">:</td><td><div>/home/fernado/web2py/tronco</div></td></tr></table></div>'
tRp116
sS'etype'
p117
S"<type 'exceptions.TypeError'>"
p118
sS'date'
p119
S'Mon Apr 14 16:01:10 2014'
p120
sS'response'
p121
g57
(S's\xb1\x1d\x00\x00<div><table><tr><td style="font-weight:bold;vertical-align:top">body</td><td valign="top">:</td><td><div>&lt;cStringIO.StringO object at 0x7f3f8024dc70&gt;</div></td></tr><tr><td style="font-weight:bold;vertical-align:top">cookies</td><td valign="top">:</td><td><div><table><tr><td style="font-weight:bold;vertical-align:top">session_id_ubercred</td><td valign="top">:</td><td><div>127.0.0.1-4da967e0-009a-4ba8-96e1-0c6e5d1da34a<table><tr><td style="font-weight:bold;vertical-align:top">comment</td><td valign="top">:</td><td><div></div></td></tr><tr><td style="font-weight:bold;vertical-align:top">domain</td><td valign="top">:</td><td><div></div></td></tr><tr><td style="font-weight:bold;vertical-align:top">expires</td><td valign="top">:</td><td><div></div></td></tr><tr><td style="font-weight:bold;vertical-align:top">httponly</td><td valign="top">:</td><td><div></div></td></tr><tr><td style="font-weight:bold;vertical-align:top">max-age</td><td valign="top">:</td><td><div></div></td></tr><tr><td style="font-weight:bold;vertical-align:top">path</td><td valign="top">:</td><td><div>/</div></td></tr><tr><td style="font-weight:bold;vertical-align:top">secure</td><td valign="top">:</td><td><div></div></td></tr><tr><td style="font-weight:bold;vertical-align:top">version</td><td valign="top">:</td><td><div></div></td></tr></table></div></td></tr></table></div></td></tr><tr><td style="font-weight:bold;vertical-align:top">delimiters</td><td valign="top">:</td><td><div><table><tr><td><div>{{</div></td></tr><tr><td><div>}}</div></td></tr></table></div></td></tr><tr><td style="font-weight:bold;vertical-align:top">files</td><td valign="top">:</td><td><div><table><tr><td><div>/ubercred/static/js/jquery.js</div></td></tr><tr><td><div>/ubercred/static/css/calendar.css</div></td></tr><tr><td><div>/ubercred/static/js/calendar.js</div></td></tr><tr><td><div>/ubercred/static/js/web2py.js</div></td></tr><tr><td><div>/ubercred/static/css/web2py.css</div></td></tr><tr><td><div>/ubercred/static/css/bootstrap.min.css</div></td></tr><tr><td><div>/ubercred/static/css/bootstrap-responsive.min.css</div></td></tr><tr><td><div>/ubercred/static/css/web2py_bootstrap.css</div></td></tr></table></div></td></tr><tr><td style="font-weight:bold;vertical-align:top">flash</td><td valign="top">:</td><td><div></div></td></tr><tr><td style="font-weight:bold;vertical-align:top">generic_patterns</td><td valign="top">:</td><td><div><table><tr><td><div>*</div></td></tr></table></div></td></tr><tr><td style="font-weight:bold;vertical-align:top">google_analytics_id</td><td valign="top">:</td><td><div>None</div></td></tr><tr><td style="font-weight:bold;vertical-align:top">headers</td><td valign="top">:</td><td><div><table><tr><td style="font-weight:bold;vertical-align:top">X-Powered-By</td><td valign="top">:</td><td><div>web2py</div></td></tr></table></div></td></tr><tr><td style="font-weight:bold;vertical-align:top">menu</td><td valign="top">:</td><td><div><table><tr><td><div><table><tr><td><div>Empr\xc3\xa9stimos</div></td></tr><tr><td><div>False</div></td></tr><tr><td><div>/ubercred/orgao</div></td></tr><tr><td><div><table><tr><td><div><table><tr><td><div>Todos</div></td></tr><tr><td><div>False</div></td></tr><tr><td><div>/ubercred/emprestimo2</div></td></tr></table></div></td></tr><tr><td><div><table><tr><td><div>Pendentes</div></td></tr><tr><td><div>False</div></td></tr><tr><td><div>/ubercred/emprestimo</div></td></tr></table></div></td></tr></table></div></td></tr></table></div></td></tr><tr><td><div><table><tr><td><div>Empresa</div></td></tr><tr><td><div>False</div></td></tr><tr><td><div>/ubercred/empresa</div></td></tr><tr><td><div><table></table></div></td></tr></table></div></td></tr><tr><td><div><table><tr><td><div>Status</div></td></tr><tr><td><div>False</div></td></tr><tr><td><div>/ubercred/status</div></td></tr><tr><td><div><table></table></div></td></tr></table></div></td></tr></table></div></td></tr><tr><td style="font-weight:bold;vertical-align:top">menu2</td><td valign="top">:</td><td><div><table><tr><td><div><table><tr><td><div><span class="dropdown-toggle">Login</span></div></td></tr><tr><td><div>False</div></td></tr><tr><td><div>#</div></td></tr><tr><td><div><table><tr><td><div><table><tr><td><div>Usu\xc3\xa1rios</div></td></tr><tr><td><div>False</div></td></tr><tr><td><div>/ubercred/users</div></td></tr></table></div></td></tr><tr><td><div><table><tr><td><div>Logout</div></td></tr><tr><td><div>False</div></td></tr><tr><td><div>/ubercred/user/logout</div></td></tr></table></div></td></tr></table></div></td></tr></table></div></td></tr></table></div></td></tr><tr><td style="font-weight:bold;vertical-align:top">meta</td><td valign="top">:</td><td><div><table><tr><td style="font-weight:bold;vertical-align:top">author</td><td valign="top">:</td><td><div>ForIP</div></td></tr><tr><td style="font-weight:bold;vertical-align:top">description</td><td valign="top">:</td><td><div>Ubercred</div></td></tr><tr><td style="font-weight:bold;vertical-align:top">generator</td><td valign="top">:</td><td><div>Web2py Web Framework</div></td></tr><tr><td style="font-weight:bold;vertical-align:top">keywords</td><td valign="top">:</td><td><div>web2py, python, framework</div></td></tr></table></div></td></tr><tr><td style="font-weight:bold;vertical-align:top">models_to_run</td><td valign="top">:</td><td><div><table><tr><td><div>^\\w+\\.py$</div></td></tr><tr><td><div>^initial/\\w+\\.py$</div></td></tr><tr><td><div>^initial/orgao/\\w+\\.py$</div></td></tr></table></div></td></tr><tr><td style="font-weight:bold;vertical-align:top">postprocessing</td><td valign="top">:</td><td><div><table></table></div></td></tr><tr><td style="font-weight:bold;vertical-align:top">session_cookie_expires</td><td valign="top">:</td><td><div>None</div></td></tr><tr><td style="font-weight:bold;vertical-align:top">session_data_name</td><td valign="top">:</td><td><div>session_data_ubercred</div></td></tr><tr><td style="font-weight:bold;vertical-align:top">session_file</td><td valign="top">:</td><td><div>&lt;open file &#x27;/home/fernado/web2py/tronco/applications/ubercred/sessions/127.0.0.1-4da967e0-009a-4ba8-96e1-0c6e5d1da34a&#x27;, mode &#x27;rb+&#x27; at 0x7f3f802be5d0&gt;</div></td></tr><tr><td style="font-weight:bold;vertical-align:top">session_filename</td><td valign="top">:</td><td><div>/home/fernado/web2py/tronco/applications/ubercred/sessions/127.0.0.1-4da967e0-009a-4ba8-96e1-0c6e5d1da34a</div></td></tr><tr><td style="font-weight:bold;vertical-align:top">session_id</td><td valign="top">:</td><td><div>127.0.0.1-4da967e0-009a-4ba8-96e1-0c6e5d1da34a</div></td></tr><tr><td style="font-weight:bold;vertical-align:top">session_id_name</td><td valign="top">:</td><td><div>session_id_ubercred</div></td></tr><tr><td style="font-weight:bold;vertical-align:top">session_locked</td><td valign="top">:</td><td><div>True</div></td></tr><tr><td style="font-weight:bold;vertical-align:top">session_new</td><td valign="top">:</td><td><div>False</div></td></tr><tr><td style="font-weight:bold;vertical-align:top">session_storage_type</td><td valign="top">:</td><td><div>file</div></td></tr><tr><td style="font-weight:bold;vertical-align:top">status</td><td valign="top">:</td><td><div>200</div></td></tr><tr><td style="font-weight:bold;vertical-align:top">subtitle</td><td valign="top">:</td><td><div>customize me!</div></td></tr><tr><td style="font-weight:bold;vertical-align:top">title</td><td valign="top">:</td><td><div>org\xc3\xa3o</div></td></tr><tr><td style="font-weight:bold;vertical-align:top">view</td><td valign="top">:</td><td><div>initial/list_orgao.html</div></td></tr></table></div>'
tRp122
sS'locals'
p123
(dp124
S'OBJECT'
p125
S"<class 'gluon.html.OBJECT'>"
p126
sS'SQLDB'
p127
S"<class 'gluon.dal.DAL'>"
p128
sg115
S"<Storage {'_user_agent': {'is_mobile': False, 'i...ssion_hash': '2deb18337950072cc79643ca055210f8'}>"
p129
sS'LINK'
p130
S"<class 'gluon.html.LINK'>"
p131
sS'BR'
p132
S"<class 'gluon.html.BR'>"
p133
sS'local_import'
p134
S'<function <lambda>>'
p135
sS'OPTGROUP'
p136
S"<class 'gluon.html.OPTGROUP'>"
p137
sS'query'
p138
S"<Query (auth_user.funcao = 'supervisor')>"
p139
sS'__package__'
p140
S'None'
p141
sS'row'
p142
S"<Row {'username': 'sup_loja30'}>"
p143
sS'PRE'
p144
S"<class 'gluon.html.PRE'>"
p145
sS'IS_INT_IN_RANGE'
p146
S"<class 'gluon.validators.IS_INT_IN_RANGE'>"
p147
sS'left_sidebar_enabled'
p148
S'False'
p149
sS'IS_LOWER'
p150
S"<class 'gluon.validators.IS_LOWER'>"
p151
sS'IS_STRONG'
p152
S"<class 'gluon.validators.IS_STRONG'>"
p153
sS'cache'
p154
S'<gluon.cache.Cache object>'
p155
sS'IS_IN_DB'
p156
S"<class 'gluon.validators.IS_IN_DB'>"
p157
sS'TAG'
p158
S'<gluon.html.__TAG__ object>'
p159
sS'SQLField'
p160
S"<class 'gluon.dal.Field'>"
p161
sS'mail'
p162
S'<gluon.tools.Mail object>'
p163
sS'logger'
p164
S'<logging.Logger object>'
p165
sS'BODY'
p166
S"<class 'gluon.html.BODY'>"
p167
sS'IS_DATE_IN_RANGE'
p168
S"<class 'gluon.validators.IS_DATE_IN_RANGE'>"
p169
sS'IFRAME'
p170
S"<class 'gluon.html.IFRAME'>"
p171
sS'URL'
p172
S'<function URL>'
p173
sS'config'
p174
S"<Storage {'mail': <Storage {}>, 'db': <Storage {...rcred', 'pool_size': 10}>, 'auth': <Storage {}>}>"
p175
sS'__file__'
p176
S"'/home/fernado/web2py/tronco/applications/ubercred/views/initial/list_orgao.html'"
p177
sS'db'
p178
S'<DAL uri="postgres:pg8000:******@127.0.0.1/ubercred">'
p179
sS'auth'
p180
S'<gluon.tools.Auth object>'
p181
sS'P'
S"<class 'gluon.html.P'>"
p182
sS'TFOOT'
p183
S"<class 'gluon.html.TFOOT'>"
p184
sS'XHTML'
p185
S"<class 'gluon.html.XHTML'>"
p186
sS'ON'
p187
S'True'
p188
sS'OL'
p189
S"<class 'gluon.html.OL'>"
p190
sS'TEXTAREA'
p191
S"<class 'gluon.html.TEXTAREA'>"
p192
sS'orgao'
p193
S'<function orgao>'
p194
sS'MENU'
p195
S"<class 'gluon.html.MENU'>"
p196
sS'IS_IMAGE'
p197
S"<class 'gluon.validators.IS_IMAGE'>"
p198
sS'EM'
p199
S"<class 'gluon.html.EM'>"
p200
sS'CODE'
p201
S"<class 'gluon.html.CODE'>"
p202
sS'HTTP'
p203
S"<class 'gluon.http.HTTP'>"
p204
sS'HR'
p205
S"<class 'gluon.html.HR'>"
p206
sS'IS_DATETIME'
p207
S"<class 'gluon.validators.IS_DATETIME'>"
p208
sS'Storage'
p209
S"<class 'gluon.storage.Storage'>"
p210
sS'STYLE'
p211
S"<class 'gluon.html.STYLE'>"
p212
sS'LABEL'
p213
S"<class 'gluon.html.LABEL'>"
p214
sS'CLEANUP'
p215
S"<class 'gluon.validators.CLEANUP'>"
p216
sS'SELECT'
p217
S"<class 'gluon.html.SELECT'>"
p218
sS'CENTER'
p219
S"<class 'gluon.html.CENTER'>"
p220
sS'Auth'
p221
S"<class 'gluon.tools.Auth'>"
p222
sS'DEVELOPMENT_MENU'
p223
g188
sS'__builtins__'
p224
S"{'ArithmeticError': <type 'exceptions.ArithmeticError'>, 'AssertionError': <type 'exceptions.AssertionError'>, 'AttributeError': <type 'exceptions.AttributeError'>, 'BaseException': <type 'exceptions.BaseException'>, 'BufferError': <type 'exceptions.BufferError'>, 'BytesWarning': <type 'exceptions.BytesWarning'>, 'DeprecationWarning': <type 'exceptions.DeprecationWarning'>, 'EOFError': <type 'exceptions.EOFError'>, 'Ellipsis': Ellipsis, 'EnvironmentError': <type 'exceptions.EnvironmentError'>, ...}"
p225
sS'HTML'
p226
S"<class 'gluon.html.HTML'>"
p227
sS'sup'
p228
S"['sup_loja24', 'supervisora', 'sup_loja30']"
p229
sS'SQLFORM'
p230
S"<class 'gluon.sqlhtml.SQLFORM'>"
p231
sS'LOAD'
p232
S'<function LOAD>'
p233
sS'redirect'
p234
S'<function redirect>'
p235
sS'FIELDSET'
p236
S"<class 'gluon.html.FIELDSET'>"
p237
sS'IS_EQUAL_TO'
p238
S"<class 'gluon.validators.IS_EQUAL_TO'>"
p239
sS'embed64'
p240
S'<function embed64>'
p241
sS'IS_LIST_OF'
p242
S"<class 'gluon.validators.IS_LIST_OF'>"
p243
sS'INPUT'
p244
S"<class 'gluon.html.INPUT'>"
p245
sS'EMBED'
p246
S"<class 'gluon.html.EMBED'>"
p247
sS'_'
S'<function _>'
p248
sS'logging'
p249
S"<module 'logging' from '/usr/lib/python2.7/logging/__init__.pyc'>"
p250
sS'H2'
p251
S"<class 'gluon.html.H2'>"
p252
sS'H3'
p253
S"<class 'gluon.html.H3'>"
p254
sS'BUTTON'
p255
S"<class 'gluon.html.BUTTON'>"
p256
sS'H1'
p257
S"<class 'gluon.html.H1'>"
p258
sS'H6'
p259
S"<class 'gluon.html.H6'>"
p260
sS'H4'
p261
S"<class 'gluon.html.H4'>"
p262
sS'H5'
p263
S"<class 'gluon.html.H5'>"
p264
sS'UL'
p265
S"<class 'gluon.html.UL'>"
p266
sS'IS_UPPER'
p267
S"<class 'gluon.validators.IS_UPPER'>"
p268
sS'xmlescape'
p269
S'<function xmlescape>'
p270
sS'IS_TIME'
p271
S"<class 'gluon.validators.IS_TIME'>"
p272
sS'OPTION'
p273
S"<class 'gluon.html.OPTION'>"
p274
sS'TITLE'
p275
S"<class 'gluon.html.TITLE'>"
p276
sS'CRYPT'
p277
S"<class 'gluon.validators.CRYPT'>"
p278
sS'IS_EMPTY_OR'
p279
S"<class 'gluon.validators.IS_EMPTY_OR'>"
p280
sS'MARKMIN'
p281
S"<class 'gluon.html.MARKMIN'>"
p282
sS'notifica'
p283
S'<function notifica>'
p284
sS'STRONG'
p285
S"<class 'gluon.html.STRONG'>"
p286
sS'COL'
p287
S"<class 'gluon.html.COL'>"
p288
sS'SCRIPT'
p289
S"<class 'gluon.html.SCRIPT'>"
p290
sS'is_mobile'
p291
g149
sS'var'
p292
S'<Rows (3)>'
p293
sS'TABLE'
p294
S"<class 'gluon.html.TABLE'>"
p295
sS'IS_IPV4'
p296
S"<class 'gluon.validators.IS_IPV4'>"
p297
sS'IS_LENGTH'
p298
S"<class 'gluon.validators.IS_LENGTH'>"
p299
sS'IS_IPV6'
p300
S"<class 'gluon.validators.IS_IPV6'>"
p301
sS'XML'
p302
S"<class 'gluon.html.XML'>"
p303
sS'B'
S"<class 'gluon.html.B'>"
p304
sS'IMG'
p305
S"<class 'gluon.html.IMG'>"
p306
sS'SQLTABLE'
p307
S"<class 'gluon.sqlhtml.SQLTABLE'>"
p308
sS'IS_MATCH'
p309
S"<class 'gluon.validators.IS_MATCH'>"
p310
sS'IS_ALPHANUMERIC'
p311
S"<class 'gluon.validators.IS_ALPHANUMERIC'>"
p312
sS'SPAN'
p313
S"<class 'gluon.html.SPAN'>"
p314
sS'IS_JSON'
p315
S"<class 'gluon.validators.IS_JSON'>"
p316
sS'IS_IPADDRESS'
p317
S"<class 'gluon.validators.IS_IPADDRESS'>"
p318
sS'IS_SLUG'
p319
S"<class 'gluon.validators.IS_SLUG'>"
p320
sS'BEAUTIFY'
p321
S"<class 'gluon.html.BEAUTIFY'>"
p322
sS'META'
p323
S"<class 'gluon.html.META'>"
p324
sS'IS_DATE'
p325
S"<class 'gluon.validators.IS_DATE'>"
p326
sS'IS_EMAIL'
p327
S"<class 'gluon.validators.IS_EMAIL'>"
p328
sS'IS_NOT_EMPTY'
p329
S"<class 'gluon.validators.IS_NOT_EMPTY'>"
p330
sS'IS_FLOAT_IN_RANGE'
p331
S"<class 'gluon.validators.IS_FLOAT_IN_RANGE'>"
p332
sS'TBODY'
p333
S"<class 'gluon.html.TBODY'>"
p334
sS'CAT'
p335
S"<class 'gluon.html.CAT'>"
p336
sS'Field'
p337
S"<class 'gluon.dal.Field'>"
p338
sS'middle_columns'
p339
S"'span12'"
p340
sS'DIV'
p341
S"<class 'gluon.html.DIV'>"
p342
sS'LEGEND'
p343
S"<class 'gluon.html.LEGEND'>"
p344
sS'COLGROUP'
p345
S"<class 'gluon.html.COLGROUP'>"
p346
sS'DAL'
p347
S"<class 'gluon.dal.DAL'>"
p348
sS'TT'
p349
S"<class 'gluon.html.TT'>"
p350
sS'TR'
p351
S"<class 'gluon.html.TR'>"
p352
sS'LI'
p353
S"<class 'gluon.html.LI'>"
p354
sS'right_sidebar_enabled'
p355
g149
sS'TH'
p356
S"<class 'gluon.html.TH'>"
p357
sS'TD'
p358
S"<class 'gluon.html.TD'>"
p359
sS'IS_URL'
p360
S"<class 'gluon.validators.IS_URL'>"
p361
sS'A'
S"<class 'gluon.html.A'>"
p362
sS'HEAD'
p363
S"<class 'gluon.html.HEAD'>"
p364
sS'IS_DATETIME_IN_RANGE'
p365
S"<class 'gluon.validators.IS_DATETIME_IN_RANGE'>"
p366
sS'FORM'
p367
S"<class 'gluon.html.FORM'>"
p368
sS'I'
S"<class 'gluon.html.I'>"
p369
sS'IS_NOT_IN_DB'
p370
S"<class 'gluon.validators.IS_NOT_IN_DB'>"
p371
sg121
S"<Storage {'body': <cStringIO.StringO object at 0...f3f8025c758>, 'view': 'initial/list_orgao.html'}>"
p372
sS'THEAD'
p373
S"<class 'gluon.html.THEAD'>"
p374
sS'ANY_OF'
p375
S"<class 'gluon.validators.ANY_OF'>"
p376
sS'IS_NULL_OR'
p377
S"<class 'gluon.validators.IS_EMPTY_OR'>"
p378
sS'IS_CPF_OR_CNPJ'
p379
S"<class '__restricted__.IS_CPF_OR_CNPJ'>"
p380
sS'__name__'
p381
S"'__restricted__'"
p382
sg56
S"<Storage {'function': 'orgao', 'body': <cStringI...lications/ubercred/', 'post_vars': <Storage {}>}>"
p383
sS'IS_EXPR'
p384
S"<class 'gluon.validators.IS_EXPR'>"
p385
sS'T'
S'<gluon.languages.translator object>'
p386
sS'IS_IN_SET'
p387
S"<class 'gluon.validators.IS_IN_SET'>"
p388
sS'IS_UPLOAD_FILENAME'
p389
S"<class 'gluon.validators.IS_UPLOAD_FILENAME'>"
p390
sS'IS_DECIMAL_IN_RANGE'
p391
S"<class 'gluon.validators.IS_DECIMAL_IN_RANGE'>"
p392
sssS'traceback'
p393
S'Traceback (most recent call last):\n  File "/home/fernado/web2py/tronco/gluon/restricted.py", line 212, in restricted\n    exec ccode in environment\n  File "/home/fernado/web2py/tronco/applications/ubercred/views/initial/list_orgao.html", line 84, in <module>\nTypeError: \'function\' object is not iterable\n'
p394
s.